SF:/Users/amacgafraidh/Desktop/irish-mcp-gateway/src/api/mcp.rs
FN:21,_RNCNCNvNtNtCsfRhWF7WD9Ln_17irish_mcp_gateway3api3mcp9call_tool00B9_
FN:28,_RNCNCNvNtNtCsfRhWF7WD9Ln_17irish_mcp_gateway3api3mcp9call_tool0s0_0B9_
FN:26,_RNCNCNvNtNtCsfRhWF7WD9Ln_17irish_mcp_gateway3api3mcp9call_tool0s_0B9_
FN:12,_RNCNvNtNtCsfRhWF7WD9Ln_17irish_mcp_gateway3api3mcp10tools_list0B7_
FN:35,_RNCNvNtNtCsfRhWF7WD9Ln_17irish_mcp_gateway3api3mcp4http0B7_
FN:18,_RNCNvNtNtCsfRhWF7WD9Ln_17irish_mcp_gateway3api3mcp9call_tool0B7_
FN:69,_RNCNvNtNtCsfRhWF7WD9Ln_17irish_mcp_gateway3api3mcp10stdio_loop0B7_
FN:69,_RNvNtNtCsfRhWF7WD9Ln_17irish_mcp_gateway3api3mcp10stdio_loop
FN:11,_RNvNtNtCsfRhWF7WD9Ln_17irish_mcp_gateway3api3mcp10tools_list
FN:32,_RNvNtNtCsfRhWF7WD9Ln_17irish_mcp_gateway3api3mcp4http
FN:18,_RNvNtNtCsfRhWF7WD9Ln_17irish_mcp_gateway3api3mcp9call_tool
FN:69,_RNCNvNtNtCskasGANT74SO_17irish_mcp_gateway3api3mcp10stdio_loop0B7_
FN:69,_RNvNtNtCskasGANT74SO_17irish_mcp_gateway3api3mcp10stdio_loop
FN:119,_RNvNtNtNtCskasGANT74SO_17irish_mcp_gateway3api3mcp5tests17router_with_state
FN:150,_RNvNtNtNtCskasGANT74SO_17irish_mcp_gateway3api3mcp5testss_24it_knows_http_tools_list
FN:127,_RNvNtNtNtCskasGANT74SO_17irish_mcp_gateway3api3mcp5testss_25it_knows_tools_list_shape
FN:185,_RNvNtNtNtCskasGANT74SO_17irish_mcp_gateway3api3mcp5testss_26it_knows_http_unknown_tool
FN:168,_RNvNtNtNtCskasGANT74SO_17irish_mcp_gateway3api3mcp5testss_27it_knows_http_tools_call_ok
FN:201,_RNvNtNtNtCskasGANT74SO_17irish_mcp_gateway3api3mcp5testss_28it_knows_http_unknown_method
FN:135,_RNvNtNtNtCskasGANT74SO_17irish_mcp_gateway3api3mcp5testss_29it_knows_call_tool_happy_path
FN:217,_RNvNtNtNtCskasGANT74SO_17irish_mcp_gateway3api3mcp5testss_30it_knows_http_grammar_check_ok
FN:11,_RNvNtNtCskasGANT74SO_17irish_mcp_gateway3api3mcp10tools_list
FN:32,_RNvNtNtCskasGANT74SO_17irish_mcp_gateway3api3mcp4http
FN:18,_RNvNtNtCskasGANT74SO_17irish_mcp_gateway3api3mcp9call_tool
FN:224,_RNCNCNvNtNtNtCskasGANT74SO_17irish_mcp_gateway3api3mcp5testss_30it_knows_http_grammar_check_ok00Bb_
FN:150,_RNCNvNtNtNtCskasGANT74SO_17irish_mcp_gateway3api3mcp5testss_24it_knows_http_tools_list0B9_
FN:185,_RNCNvNtNtNtCskasGANT74SO_17irish_mcp_gateway3api3mcp5testss_26it_knows_http_unknown_tool0B9_
FN:168,_RNCNvNtNtNtCskasGANT74SO_17irish_mcp_gateway3api3mcp5testss_27it_knows_http_tools_call_ok0B9_
FN:201,_RNCNvNtNtNtCskasGANT74SO_17irish_mcp_gateway3api3mcp5testss_28it_knows_http_unknown_method0B9_
FN:135,_RNCNvNtNtNtCskasGANT74SO_17irish_mcp_gateway3api3mcp5testss_29it_knows_call_tool_happy_path0B9_
FN:217,_RNCNvNtNtNtCskasGANT74SO_17irish_mcp_gateway3api3mcp5testss_30it_knows_http_grammar_check_ok0B9_
FN:21,_RNCNCNvNtNtCskasGANT74SO_17irish_mcp_gateway3api3mcp9call_tool00B9_
FN:28,_RNCNCNvNtNtCskasGANT74SO_17irish_mcp_gateway3api3mcp9call_tool0s0_0B9_
FN:26,_RNCNCNvNtNtCskasGANT74SO_17irish_mcp_gateway3api3mcp9call_tool0s_0B9_
FN:12,_RNCNvNtNtCskasGANT74SO_17irish_mcp_gateway3api3mcp10tools_list0B7_
FN:35,_RNCNvNtNtCskasGANT74SO_17irish_mcp_gateway3api3mcp4http0B7_
FN:18,_RNCNvNtNtCskasGANT74SO_17irish_mcp_gateway3api3mcp9call_tool0B7_
FN:69,_RNCNvNtNtCs6VTIHT4YZ9f_17irish_mcp_gateway3api3mcp10stdio_loop0B7_
FN:69,_RNvNtNtCs6VTIHT4YZ9f_17irish_mcp_gateway3api3mcp10stdio_loop
FN:119,_RNvNtNtNtCs6VTIHT4YZ9f_17irish_mcp_gateway3api3mcp5tests17router_with_state
FN:150,_RNvNtNtNtCs6VTIHT4YZ9f_17irish_mcp_gateway3api3mcp5testss_24it_knows_http_tools_list
FN:127,_RNvNtNtNtCs6VTIHT4YZ9f_17irish_mcp_gateway3api3mcp5testss_25it_knows_tools_list_shape
FN:185,_RNvNtNtNtCs6VTIHT4YZ9f_17irish_mcp_gateway3api3mcp5testss_26it_knows_http_unknown_tool
FN:168,_RNvNtNtNtCs6VTIHT4YZ9f_17irish_mcp_gateway3api3mcp5testss_27it_knows_http_tools_call_ok
FN:201,_RNvNtNtNtCs6VTIHT4YZ9f_17irish_mcp_gateway3api3mcp5testss_28it_knows_http_unknown_method
FN:135,_RNvNtNtNtCs6VTIHT4YZ9f_17irish_mcp_gateway3api3mcp5testss_29it_knows_call_tool_happy_path
FN:217,_RNvNtNtNtCs6VTIHT4YZ9f_17irish_mcp_gateway3api3mcp5testss_30it_knows_http_grammar_check_ok
FN:21,_RNCNCNvNtNtCs6VTIHT4YZ9f_17irish_mcp_gateway3api3mcp9call_tool00B9_
FN:28,_RNCNCNvNtNtCs6VTIHT4YZ9f_17irish_mcp_gateway3api3mcp9call_tool0s0_0B9_
FN:26,_RNCNCNvNtNtCs6VTIHT4YZ9f_17irish_mcp_gateway3api3mcp9call_tool0s_0B9_
FN:12,_RNCNvNtNtCs6VTIHT4YZ9f_17irish_mcp_gateway3api3mcp10tools_list0B7_
FN:35,_RNCNvNtNtCs6VTIHT4YZ9f_17irish_mcp_gateway3api3mcp4http0B7_
FN:18,_RNCNvNtNtCs6VTIHT4YZ9f_17irish_mcp_gateway3api3mcp9call_tool0B7_
FN:224,_RNCNCNvNtNtNtCs6VTIHT4YZ9f_17irish_mcp_gateway3api3mcp5testss_30it_knows_http_grammar_check_ok00Bb_
FN:150,_RNCNvNtNtNtCs6VTIHT4YZ9f_17irish_mcp_gateway3api3mcp5testss_24it_knows_http_tools_list0B9_
FN:185,_RNCNvNtNtNtCs6VTIHT4YZ9f_17irish_mcp_gateway3api3mcp5testss_26it_knows_http_unknown_tool0B9_
FN:168,_RNCNvNtNtNtCs6VTIHT4YZ9f_17irish_mcp_gateway3api3mcp5testss_27it_knows_http_tools_call_ok0B9_
FN:201,_RNCNvNtNtNtCs6VTIHT4YZ9f_17irish_mcp_gateway3api3mcp5testss_28it_knows_http_unknown_method0B9_
FN:135,_RNCNvNtNtNtCs6VTIHT4YZ9f_17irish_mcp_gateway3api3mcp5testss_29it_knows_call_tool_happy_path0B9_
FN:217,_RNCNvNtNtNtCs6VTIHT4YZ9f_17irish_mcp_gateway3api3mcp5testss_30it_knows_http_grammar_check_ok0B9_
FN:11,_RNvNtNtCs6VTIHT4YZ9f_17irish_mcp_gateway3api3mcp10tools_list
FN:32,_RNvNtNtCs6VTIHT4YZ9f_17irish_mcp_gateway3api3mcp4http
FN:18,_RNvNtNtCs6VTIHT4YZ9f_17irish_mcp_gateway3api3mcp9call_tool
FN:69,_RNCNvNtNtCshBDQ5eqaBi2_17irish_mcp_gateway3api3mcp10stdio_loop0B7_
FN:21,_RNCNCNvNtNtCshBDQ5eqaBi2_17irish_mcp_gateway3api3mcp9call_tool00B9_
FN:28,_RNCNCNvNtNtCshBDQ5eqaBi2_17irish_mcp_gateway3api3mcp9call_tool0s0_0B9_
FN:26,_RNCNCNvNtNtCshBDQ5eqaBi2_17irish_mcp_gateway3api3mcp9call_tool0s_0B9_
FN:12,_RNCNvNtNtCshBDQ5eqaBi2_17irish_mcp_gateway3api3mcp10tools_list0B7_
FN:35,_RNCNvNtNtCshBDQ5eqaBi2_17irish_mcp_gateway3api3mcp4http0B7_
FN:18,_RNCNvNtNtCshBDQ5eqaBi2_17irish_mcp_gateway3api3mcp9call_tool0B7_
FN:69,_RNvNtNtCshBDQ5eqaBi2_17irish_mcp_gateway3api3mcp10stdio_loop
FN:11,_RNvNtNtCshBDQ5eqaBi2_17irish_mcp_gateway3api3mcp10tools_list
FN:32,_RNvNtNtCshBDQ5eqaBi2_17irish_mcp_gateway3api3mcp4http
FN:18,_RNvNtNtCshBDQ5eqaBi2_17irish_mcp_gateway3api3mcp9call_tool
FNDA:0,_RNCNCNvNtNtCsfRhWF7WD9Ln_17irish_mcp_gateway3api3mcp9call_tool00B9_
FNDA:0,_RNCNCNvNtNtCsfRhWF7WD9Ln_17irish_mcp_gateway3api3mcp9call_tool0s0_0B9_
FNDA:0,_RNCNCNvNtNtCsfRhWF7WD9Ln_17irish_mcp_gateway3api3mcp9call_tool0s_0B9_
FNDA:0,_RNCNvNtNtCsfRhWF7WD9Ln_17irish_mcp_gateway3api3mcp10tools_list0B7_
FNDA:0,_RNCNvNtNtCsfRhWF7WD9Ln_17irish_mcp_gateway3api3mcp4http0B7_
FNDA:0,_RNCNvNtNtCsfRhWF7WD9Ln_17irish_mcp_gateway3api3mcp9call_tool0B7_
FNDA:0,_RNCNvNtNtCsfRhWF7WD9Ln_17irish_mcp_gateway3api3mcp10stdio_loop0B7_
FNDA:0,_RNvNtNtCsfRhWF7WD9Ln_17irish_mcp_gateway3api3mcp10stdio_loop
FNDA:0,_RNvNtNtCsfRhWF7WD9Ln_17irish_mcp_gateway3api3mcp10tools_list
FNDA:0,_RNvNtNtCsfRhWF7WD9Ln_17irish_mcp_gateway3api3mcp4http
FNDA:0,_RNvNtNtCsfRhWF7WD9Ln_17irish_mcp_gateway3api3mcp9call_tool
FNDA:0,_RNCNvNtNtCskasGANT74SO_17irish_mcp_gateway3api3mcp10stdio_loop0B7_
FNDA:0,_RNvNtNtCskasGANT74SO_17irish_mcp_gateway3api3mcp10stdio_loop
FNDA:4,_RNvNtNtNtCskasGANT74SO_17irish_mcp_gateway3api3mcp5tests17router_with_state
FNDA:1,_RNvNtNtNtCskasGANT74SO_17irish_mcp_gateway3api3mcp5testss_24it_knows_http_tools_list
FNDA:1,_RNvNtNtNtCskasGANT74SO_17irish_mcp_gateway3api3mcp5testss_25it_knows_tools_list_shape
FNDA:1,_RNvNtNtNtCskasGANT74SO_17irish_mcp_gateway3api3mcp5testss_26it_knows_http_unknown_tool
FNDA:1,_RNvNtNtNtCskasGANT74SO_17irish_mcp_gateway3api3mcp5testss_27it_knows_http_tools_call_ok
FNDA:1,_RNvNtNtNtCskasGANT74SO_17irish_mcp_gateway3api3mcp5testss_28it_knows_http_unknown_method
FNDA:1,_RNvNtNtNtCskasGANT74SO_17irish_mcp_gateway3api3mcp5testss_29it_knows_call_tool_happy_path
FNDA:1,_RNvNtNtNtCskasGANT74SO_17irish_mcp_gateway3api3mcp5testss_30it_knows_http_grammar_check_ok
FNDA:2,_RNvNtNtCskasGANT74SO_17irish_mcp_gateway3api3mcp10tools_list
FNDA:6,_RNvNtNtCskasGANT74SO_17irish_mcp_gateway3api3mcp4http
FNDA:5,_RNvNtNtCskasGANT74SO_17irish_mcp_gateway3api3mcp9call_tool
FNDA:1,_RNCNCNvNtNtNtCskasGANT74SO_17irish_mcp_gateway3api3mcp5testss_30it_knows_http_grammar_check_ok00Bb_
FNDA:1,_RNCNvNtNtNtCskasGANT74SO_17irish_mcp_gateway3api3mcp5testss_24it_knows_http_tools_list0B9_
FNDA:1,_RNCNvNtNtNtCskasGANT74SO_17irish_mcp_gateway3api3mcp5testss_26it_knows_http_unknown_tool0B9_
FNDA:1,_RNCNvNtNtNtCskasGANT74SO_17irish_mcp_gateway3api3mcp5testss_27it_knows_http_tools_call_ok0B9_
FNDA:1,_RNCNvNtNtNtCskasGANT74SO_17irish_mcp_gateway3api3mcp5testss_28it_knows_http_unknown_method0B9_
FNDA:1,_RNCNvNtNtNtCskasGANT74SO_17irish_mcp_gateway3api3mcp5testss_29it_knows_call_tool_happy_path0B9_
FNDA:1,_RNCNvNtNtNtCskasGANT74SO_17irish_mcp_gateway3api3mcp5testss_30it_knows_http_grammar_check_ok0B9_
FNDA:5,_RNCNCNvNtNtCskasGANT74SO_17irish_mcp_gateway3api3mcp9call_tool00B9_
FNDA:0,_RNCNCNvNtNtCskasGANT74SO_17irish_mcp_gateway3api3mcp9call_tool0s0_0B9_
FNDA:2,_RNCNCNvNtNtCskasGANT74SO_17irish_mcp_gateway3api3mcp9call_tool0s_0B9_
FNDA:2,_RNCNvNtNtCskasGANT74SO_17irish_mcp_gateway3api3mcp10tools_list0B7_
FNDA:6,_RNCNvNtNtCskasGANT74SO_17irish_mcp_gateway3api3mcp4http0B7_
FNDA:5,_RNCNvNtNtCskasGANT74SO_17irish_mcp_gateway3api3mcp9call_tool0B7_
FNDA:0,_RNCNvNtNtCs6VTIHT4YZ9f_17irish_mcp_gateway3api3mcp10stdio_loop0B7_
FNDA:0,_RNvNtNtCs6VTIHT4YZ9f_17irish_mcp_gateway3api3mcp10stdio_loop
FNDA:4,_RNvNtNtNtCs6VTIHT4YZ9f_17irish_mcp_gateway3api3mcp5tests17router_with_state
FNDA:1,_RNvNtNtNtCs6VTIHT4YZ9f_17irish_mcp_gateway3api3mcp5testss_24it_knows_http_tools_list
FNDA:1,_RNvNtNtNtCs6VTIHT4YZ9f_17irish_mcp_gateway3api3mcp5testss_25it_knows_tools_list_shape
FNDA:1,_RNvNtNtNtCs6VTIHT4YZ9f_17irish_mcp_gateway3api3mcp5testss_26it_knows_http_unknown_tool
FNDA:1,_RNvNtNtNtCs6VTIHT4YZ9f_17irish_mcp_gateway3api3mcp5testss_27it_knows_http_tools_call_ok
FNDA:1,_RNvNtNtNtCs6VTIHT4YZ9f_17irish_mcp_gateway3api3mcp5testss_28it_knows_http_unknown_method
FNDA:1,_RNvNtNtNtCs6VTIHT4YZ9f_17irish_mcp_gateway3api3mcp5testss_29it_knows_call_tool_happy_path
FNDA:1,_RNvNtNtNtCs6VTIHT4YZ9f_17irish_mcp_gateway3api3mcp5testss_30it_knows_http_grammar_check_ok
FNDA:5,_RNCNCNvNtNtCs6VTIHT4YZ9f_17irish_mcp_gateway3api3mcp9call_tool00B9_
FNDA:0,_RNCNCNvNtNtCs6VTIHT4YZ9f_17irish_mcp_gateway3api3mcp9call_tool0s0_0B9_
FNDA:2,_RNCNCNvNtNtCs6VTIHT4YZ9f_17irish_mcp_gateway3api3mcp9call_tool0s_0B9_
FNDA:2,_RNCNvNtNtCs6VTIHT4YZ9f_17irish_mcp_gateway3api3mcp10tools_list0B7_
FNDA:6,_RNCNvNtNtCs6VTIHT4YZ9f_17irish_mcp_gateway3api3mcp4http0B7_
FNDA:5,_RNCNvNtNtCs6VTIHT4YZ9f_17irish_mcp_gateway3api3mcp9call_tool0B7_
FNDA:1,_RNCNCNvNtNtNtCs6VTIHT4YZ9f_17irish_mcp_gateway3api3mcp5testss_30it_knows_http_grammar_check_ok00Bb_
FNDA:1,_RNCNvNtNtNtCs6VTIHT4YZ9f_17irish_mcp_gateway3api3mcp5testss_24it_knows_http_tools_list0B9_
FNDA:1,_RNCNvNtNtNtCs6VTIHT4YZ9f_17irish_mcp_gateway3api3mcp5testss_26it_knows_http_unknown_tool0B9_
FNDA:1,_RNCNvNtNtNtCs6VTIHT4YZ9f_17irish_mcp_gateway3api3mcp5testss_27it_knows_http_tools_call_ok0B9_
FNDA:1,_RNCNvNtNtNtCs6VTIHT4YZ9f_17irish_mcp_gateway3api3mcp5testss_28it_knows_http_unknown_method0B9_
FNDA:1,_RNCNvNtNtNtCs6VTIHT4YZ9f_17irish_mcp_gateway3api3mcp5testss_29it_knows_call_tool_happy_path0B9_
FNDA:1,_RNCNvNtNtNtCs6VTIHT4YZ9f_17irish_mcp_gateway3api3mcp5testss_30it_knows_http_grammar_check_ok0B9_
FNDA:2,_RNvNtNtCs6VTIHT4YZ9f_17irish_mcp_gateway3api3mcp10tools_list
FNDA:6,_RNvNtNtCs6VTIHT4YZ9f_17irish_mcp_gateway3api3mcp4http
FNDA:5,_RNvNtNtCs6VTIHT4YZ9f_17irish_mcp_gateway3api3mcp9call_tool
FNDA:0,_RNCNvNtNtCshBDQ5eqaBi2_17irish_mcp_gateway3api3mcp10stdio_loop0B7_
FNDA:1,_RNCNCNvNtNtCshBDQ5eqaBi2_17irish_mcp_gateway3api3mcp9call_tool00B9_
FNDA:0,_RNCNCNvNtNtCshBDQ5eqaBi2_17irish_mcp_gateway3api3mcp9call_tool0s0_0B9_
FNDA:0,_RNCNCNvNtNtCshBDQ5eqaBi2_17irish_mcp_gateway3api3mcp9call_tool0s_0B9_
FNDA:1,_RNCNvNtNtCshBDQ5eqaBi2_17irish_mcp_gateway3api3mcp10tools_list0B7_
FNDA:2,_RNCNvNtNtCshBDQ5eqaBi2_17irish_mcp_gateway3api3mcp4http0B7_
FNDA:1,_RNCNvNtNtCshBDQ5eqaBi2_17irish_mcp_gateway3api3mcp9call_tool0B7_
FNDA:0,_RNvNtNtCshBDQ5eqaBi2_17irish_mcp_gateway3api3mcp10stdio_loop
FNDA:1,_RNvNtNtCshBDQ5eqaBi2_17irish_mcp_gateway3api3mcp10tools_list
FNDA:2,_RNvNtNtCshBDQ5eqaBi2_17irish_mcp_gateway3api3mcp4http
FNDA:1,_RNvNtNtCshBDQ5eqaBi2_17irish_mcp_gateway3api3mcp9call_tool
FNF:26
FNH:23
DA:11,5
DA:12,5
DA:13,5
DA:14,5
DA:15,5
DA:16,5
DA:18,11
DA:19,11
DA:20,11
DA:21,11
DA:22,11
DA:23,11
DA:24,11
DA:25,11
DA:26,11
DA:27,7
DA:28,7
DA:29,11
DA:32,14
DA:33,14
DA:34,14
DA:35,14
DA:36,14
DA:37,14
DA:38,14
DA:39,14
DA:40,0
DA:41,0
DA:42,0
DA:43,14
DA:44,14
DA:45,3
DA:46,3
DA:47,3
DA:49,11
DA:50,5
DA:51,5
DA:52,5
DA:53,5
DA:55,4
DA:56,4
DA:57,4
DA:58,4
DA:61,2
DA:63,14
DA:64,14
DA:65,14
DA:69,0
DA:70,0
DA:71,0
DA:72,0
DA:73,0
DA:74,0
DA:75,0
DA:77,0
DA:78,0
DA:79,0
DA:81,0
DA:82,0
DA:83,0
DA:84,0
DA:85,0
DA:86,0
DA:87,0
DA:88,0
DA:89,0
DA:91,0
DA:92,0
DA:93,0
DA:95,0
DA:98,0
DA:101,0
DA:102,0
DA:103,0
DA:105,0
DA:106,0
DA:119,8
DA:120,8
DA:121,8
DA:122,8
DA:123,8
DA:124,8
DA:127,2
DA:128,2
DA:129,2
DA:130,2
DA:131,2
DA:132,2
DA:135,2
DA:136,2
DA:137,2
DA:138,2
DA:139,2
DA:140,2
DA:141,2
DA:142,2
DA:143,2
DA:144,2
DA:145,2
DA:146,2
DA:147,2
DA:150,2
DA:151,2
DA:152,2
DA:153,2
DA:154,2
DA:155,2
DA:156,2
DA:159,2
DA:160,2
DA:161,2
DA:162,2
DA:163,2
DA:164,2
DA:165,2
DA:168,2
DA:169,2
DA:170,2
DA:171,2
DA:172,2
DA:173,2
DA:174,2
DA:175,2
DA:176,2
DA:177,2
DA:178,2
DA:179,2
DA:180,2
DA:181,2
DA:182,2
DA:185,2
DA:186,2
DA:187,2
DA:188,2
DA:189,2
DA:190,2
DA:191,2
DA:192,2
DA:193,2
DA:194,2
DA:195,2
DA:196,2
DA:197,2
DA:198,2
DA:201,2
DA:202,2
DA:203,2
DA:204,2
DA:205,2
DA:206,2
DA:207,2
DA:208,2
DA:209,2
DA:210,2
DA:211,2
DA:212,2
DA:213,2
DA:214,2
DA:217,2
DA:223,2
DA:224,2
DA:225,2
DA:226,2
DA:227,2
DA:228,2
DA:229,2
DA:230,2
DA:231,2
DA:232,2
DA:233,2
DA:234,2
DA:235,2
DA:236,2
DA:237,2
DA:239,2
DA:241,2
DA:243,2
DA:244,2
DA:245,2
DA:247,2
DA:248,2
DA:249,2
DA:250,2
DA:251,2
DA:252,2
DA:253,2
DA:255,2
DA:256,2
DA:257,2
DA:258,2
DA:259,2
DA:260,2
DA:261,2
DA:262,2
BRF:0
BRH:0
LF:215
LH:181
end_of_record
SF:/Users/amacgafraidh/Desktop/irish-mcp-gateway/src/cli/mod.rs
FN:175,_RNCNCNvNtCsfRhWF7WD9Ln_17irish_mcp_gateway3cli11show_status00B7_
FN:177,_RNCNCNvNtCsfRhWF7WD9Ln_17irish_mcp_gateway3cli11show_status0s0_0B7_
FN:176,_RNCNCNvNtCsfRhWF7WD9Ln_17irish_mcp_gateway3cli11show_status0s_0B7_
FN:189,_RNCNCNvNtCsfRhWF7WD9Ln_17irish_mcp_gateway3cli12test_grammar00B7_
FN:134,_RNCNvNtCsfRhWF7WD9Ln_17irish_mcp_gateway3cli11show_status0B5_
FN:96,_RNCNvNtCsfRhWF7WD9Ln_17irish_mcp_gateway3cli12health_check0B5_
FN:188,_RNCNvNtCsfRhWF7WD9Ln_17irish_mcp_gateway3cli12test_grammar0B5_
FN:115,_RNCNvNtCsfRhWF7WD9Ln_17irish_mcp_gateway3cli15validate_config0B5_
FN:123,_RNCNvNtCsfRhWF7WD9Ln_17irish_mcp_gateway3cli15validate_configs_0B5_
FN:44,_RNCNvNtCsfRhWF7WD9Ln_17irish_mcp_gateway3cli3run0B5_
FN:134,_RNvNtCsfRhWF7WD9Ln_17irish_mcp_gateway3cli11show_status
FN:96,_RNvNtCsfRhWF7WD9Ln_17irish_mcp_gateway3cli12health_check
FN:188,_RNvNtCsfRhWF7WD9Ln_17irish_mcp_gateway3cli12test_grammar
FN:111,_RNvNtCsfRhWF7WD9Ln_17irish_mcp_gateway3cli15validate_config
FN:44,_RNvNtCsfRhWF7WD9Ln_17irish_mcp_gateway3cli3run
FN:270,_RNCNvNtNtCskasGANT74SO_17irish_mcp_gateway3cli5testss_24test_test_grammar_no_url0B7_
FN:217,_RNCNvNtNtCskasGANT74SO_17irish_mcp_gateway3cli5testss_25test_health_check_success0B7_
FN:279,_RNCNvNtNtCskasGANT74SO_17irish_mcp_gateway3cli5testss_26test_test_grammar_with_url0B7_
FN:175,_RNCNCNvNtCskasGANT74SO_17irish_mcp_gateway3cli11show_status00B7_
FN:177,_RNCNCNvNtCskasGANT74SO_17irish_mcp_gateway3cli11show_status0s0_0B7_
FN:176,_RNCNCNvNtCskasGANT74SO_17irish_mcp_gateway3cli11show_status0s_0B7_
FN:134,_RNCNvNtCskasGANT74SO_17irish_mcp_gateway3cli11show_status0B5_
FN:44,_RNCNvNtCskasGANT74SO_17irish_mcp_gateway3cli3run0B5_
FN:134,_RNvNtCskasGANT74SO_17irish_mcp_gateway3cli11show_status
FN:44,_RNvNtCskasGANT74SO_17irish_mcp_gateway3cli3run
FN:189,_RNCNCNvNtCskasGANT74SO_17irish_mcp_gateway3cli12test_grammar00B7_
FN:96,_RNCNvNtCskasGANT74SO_17irish_mcp_gateway3cli12health_check0B5_
FN:188,_RNCNvNtCskasGANT74SO_17irish_mcp_gateway3cli12test_grammar0B5_
FN:115,_RNCNvNtCskasGANT74SO_17irish_mcp_gateway3cli15validate_config0B5_
FN:123,_RNCNvNtCskasGANT74SO_17irish_mcp_gateway3cli15validate_configs_0B5_
FN:96,_RNvNtCskasGANT74SO_17irish_mcp_gateway3cli12health_check
FN:188,_RNvNtCskasGANT74SO_17irish_mcp_gateway3cli12test_grammar
FN:111,_RNvNtCskasGANT74SO_17irish_mcp_gateway3cli15validate_config
FN:270,_RNvNtNtCskasGANT74SO_17irish_mcp_gateway3cli5testss_24test_test_grammar_no_url
FN:217,_RNvNtNtCskasGANT74SO_17irish_mcp_gateway3cli5testss_25test_health_check_success
FN:279,_RNvNtNtCskasGANT74SO_17irish_mcp_gateway3cli5testss_26test_test_grammar_with_url
FN:224,_RNvNtNtCskasGANT74SO_17irish_mcp_gateway3cli5testss_26test_validate_config_valid
FN:247,_RNvNtNtCskasGANT74SO_17irish_mcp_gateway3cli5testss_31test_validate_config_stdio_mode
FN:236,_RNvNtNtCskasGANT74SO_17irish_mcp_gateway3cli5testss_33test_validate_config_invalid_mode
FN:257,_RNvNtNtCskasGANT74SO_17irish_mcp_gateway3cli5testss_33test_validate_config_invalid_port
FNDA:0,_RNCNCNvNtCsfRhWF7WD9Ln_17irish_mcp_gateway3cli11show_status00B7_
FNDA:0,_RNCNCNvNtCsfRhWF7WD9Ln_17irish_mcp_gateway3cli11show_status0s0_0B7_
FNDA:0,_RNCNCNvNtCsfRhWF7WD9Ln_17irish_mcp_gateway3cli11show_status0s_0B7_
FNDA:0,_RNCNCNvNtCsfRhWF7WD9Ln_17irish_mcp_gateway3cli12test_grammar00B7_
FNDA:0,_RNCNvNtCsfRhWF7WD9Ln_17irish_mcp_gateway3cli11show_status0B5_
FNDA:0,_RNCNvNtCsfRhWF7WD9Ln_17irish_mcp_gateway3cli12health_check0B5_
FNDA:0,_RNCNvNtCsfRhWF7WD9Ln_17irish_mcp_gateway3cli12test_grammar0B5_
FNDA:0,_RNCNvNtCsfRhWF7WD9Ln_17irish_mcp_gateway3cli15validate_config0B5_
FNDA:0,_RNCNvNtCsfRhWF7WD9Ln_17irish_mcp_gateway3cli15validate_configs_0B5_
FNDA:0,_RNCNvNtCsfRhWF7WD9Ln_17irish_mcp_gateway3cli3run0B5_
FNDA:0,_RNvNtCsfRhWF7WD9Ln_17irish_mcp_gateway3cli11show_status
FNDA:0,_RNvNtCsfRhWF7WD9Ln_17irish_mcp_gateway3cli12health_check
FNDA:0,_RNvNtCsfRhWF7WD9Ln_17irish_mcp_gateway3cli12test_grammar
FNDA:0,_RNvNtCsfRhWF7WD9Ln_17irish_mcp_gateway3cli15validate_config
FNDA:0,_RNvNtCsfRhWF7WD9Ln_17irish_mcp_gateway3cli3run
FNDA:1,_RNCNvNtNtCskasGANT74SO_17irish_mcp_gateway3cli5testss_24test_test_grammar_no_url0B7_
FNDA:1,_RNCNvNtNtCskasGANT74SO_17irish_mcp_gateway3cli5testss_25test_health_check_success0B7_
FNDA:1,_RNCNvNtNtCskasGANT74SO_17irish_mcp_gateway3cli5testss_26test_test_grammar_with_url0B7_
FNDA:0,_RNCNCNvNtCskasGANT74SO_17irish_mcp_gateway3cli11show_status00B7_
FNDA:0,_RNCNCNvNtCskasGANT74SO_17irish_mcp_gateway3cli11show_status0s0_0B7_
FNDA:0,_RNCNCNvNtCskasGANT74SO_17irish_mcp_gateway3cli11show_status0s_0B7_
FNDA:0,_RNCNvNtCskasGANT74SO_17irish_mcp_gateway3cli11show_status0B5_
FNDA:0,_RNCNvNtCskasGANT74SO_17irish_mcp_gateway3cli3run0B5_
FNDA:0,_RNvNtCskasGANT74SO_17irish_mcp_gateway3cli11show_status
FNDA:0,_RNvNtCskasGANT74SO_17irish_mcp_gateway3cli3run
FNDA:1,_RNCNCNvNtCskasGANT74SO_17irish_mcp_gateway3cli12test_grammar00B7_
FNDA:1,_RNCNvNtCskasGANT74SO_17irish_mcp_gateway3cli12health_check0B5_
FNDA:2,_RNCNvNtCskasGANT74SO_17irish_mcp_gateway3cli12test_grammar0B5_
FNDA:0,_RNCNvNtCskasGANT74SO_17irish_mcp_gateway3cli15validate_config0B5_
FNDA:2,_RNCNvNtCskasGANT74SO_17irish_mcp_gateway3cli15validate_configs_0B5_
FNDA:1,_RNvNtCskasGANT74SO_17irish_mcp_gateway3cli12health_check
FNDA:2,_RNvNtCskasGANT74SO_17irish_mcp_gateway3cli12test_grammar
FNDA:4,_RNvNtCskasGANT74SO_17irish_mcp_gateway3cli15validate_config
FNDA:1,_RNvNtNtCskasGANT74SO_17irish_mcp_gateway3cli5testss_24test_test_grammar_no_url
FNDA:1,_RNvNtNtCskasGANT74SO_17irish_mcp_gateway3cli5testss_25test_health_check_success
FNDA:1,_RNvNtNtCskasGANT74SO_17irish_mcp_gateway3cli5testss_26test_test_grammar_with_url
FNDA:1,_RNvNtNtCskasGANT74SO_17irish_mcp_gateway3cli5testss_26test_validate_config_valid
FNDA:1,_RNvNtNtCskasGANT74SO_17irish_mcp_gateway3cli5testss_31test_validate_config_stdio_mode
FNDA:1,_RNvNtNtCskasGANT74SO_17irish_mcp_gateway3cli5testss_33test_validate_config_invalid_mode
FNDA:1,_RNvNtNtCskasGANT74SO_17irish_mcp_gateway3cli5testss_33test_validate_config_invalid_port
FNF:25
FNH:17
DA:44,0
DA:45,0
DA:47,0
DA:48,0
DA:49,0
DA:51,0
DA:52,0
DA:54,0
DA:55,0
DA:56,0
DA:61,0
DA:63,0
DA:64,0
DA:66,0
DA:67,0
DA:68,0
DA:72,0
DA:73,0
DA:74,0
DA:75,0
DA:76,0
DA:77,0
DA:81,0
DA:82,0
DA:84,0
DA:85,0
DA:87,0
DA:88,0
DA:89,0
DA:94,0
DA:96,1
DA:97,1
DA:98,1
DA:99,1
DA:100,1
DA:101,1
DA:102,1
DA:104,0
DA:105,0
DA:107,0
DA:109,1
DA:111,4
DA:112,4
DA:115,4
DA:116,4
DA:117,1
DA:118,3
DA:120,3
DA:121,2
DA:122,2
DA:123,2
DA:124,2
DA:126,2
DA:127,1
DA:128,1
DA:129,1
DA:131,2
DA:132,4
DA:134,0
DA:135,0
DA:138,0
DA:139,0
DA:140,0
DA:141,0
DA:142,0
DA:144,0
DA:145,0
DA:148,0
DA:149,0
DA:150,0
DA:151,0
DA:152,0
DA:153,0
DA:154,0
DA:155,0
DA:156,0
DA:157,0
DA:158,0
DA:159,0
DA:161,0
DA:162,0
DA:163,0
DA:164,0
DA:165,0
DA:166,0
DA:167,0
DA:168,0
DA:169,0
DA:170,0
DA:174,0
DA:175,0
DA:176,0
DA:177,0
DA:179,0
DA:180,0
DA:181,0
DA:182,0
DA:183,0
DA:185,0
DA:186,0
DA:188,2
DA:189,2
DA:190,2
DA:192,1
DA:193,1
DA:195,0
DA:196,0
DA:198,0
DA:199,0
DA:200,0
DA:201,0
DA:202,0
DA:203,0
DA:204,0
DA:205,0
DA:206,0
DA:208,0
DA:209,2
DA:217,1
DA:219,1
DA:220,1
DA:221,1
DA:224,1
DA:225,1
DA:226,1
DA:228,1
DA:229,1
DA:231,1
DA:232,1
DA:233,1
DA:236,1
DA:237,1
DA:239,1
DA:240,1
DA:241,1
DA:243,1
DA:244,1
DA:247,1
DA:248,1
DA:250,1
DA:251,1
DA:253,1
DA:254,1
DA:257,1
DA:258,1
DA:259,1
DA:261,1
DA:262,1
DA:263,1
DA:265,1
DA:266,1
DA:267,1
DA:270,1
DA:271,1
DA:273,1
DA:274,1
DA:275,1
DA:276,1
DA:279,1
DA:281,1
DA:282,1
DA:283,1
BRF:0
BRH:0
LF:178
LH:85
end_of_record
SF:/Users/amacgafraidh/Desktop/irish-mcp-gateway/src/clients/gramadoir.rs
FN:83,_RNvXs_NtNtCsfRhWF7WD9Ln_17irish_mcp_gateway7clients9gramadoirNtNtB8_6domain12GrammarIssueINtNtCsjIUqRHSHb9k_4core7convert4FromNtB4_9IssueWireE4from
FN:15,_RINvMNtNtCsfRhWF7WD9Ln_17irish_mcp_gateway7clients9gramadoirNtB3_15GramadoirRemote3newNtNtCs3LPPTODPrjR_5alloc6string6StringEB7_
FN:38,_RNCNCNCNCNvMNtNtCsfRhWF7WD9Ln_17irish_mcp_gateway7clients9gramadoirNtBa_15GramadoirRemote7analyze0000Be_
FN:45,_RNCNCNCNCNvMNtNtCsfRhWF7WD9Ln_17irish_mcp_gateway7clients9gramadoirNtBa_15GramadoirRemote7analyze000s_0Be_
FN:32,_RNCNCNCNvMNtNtCsfRhWF7WD9Ln_17irish_mcp_gateway7clients9gramadoirNtB8_15GramadoirRemote7analyze000Bc_
FN:28,_RNCNCNvMNtNtCsfRhWF7WD9Ln_17irish_mcp_gateway7clients9gramadoirNtB6_15GramadoirRemote7analyze00Ba_
FN:23,_RNCNvMNtNtCsfRhWF7WD9Ln_17irish_mcp_gateway7clients9gramadoirNtB4_15GramadoirRemote7analyze0B8_
FN:23,_RNvMNtNtCsfRhWF7WD9Ln_17irish_mcp_gateway7clients9gramadoirNtB2_15GramadoirRemote7analyze
FN:84,_RNvNvXs_NtNtCsfRhWF7WD9Ln_17irish_mcp_gateway7clients9gramadoirNtNtBa_6domain12GrammarIssueINtNtCsjIUqRHSHb9k_4core7convert4FromNtB6_9IssueWireE4from11parse_usize
FN:23,_RNvMNtNtCskasGANT74SO_17irish_mcp_gateway7clients9gramadoirNtB2_15GramadoirRemote7analyze
FN:84,_RNvNvXs_NtNtCskasGANT74SO_17irish_mcp_gateway7clients9gramadoirNtNtBa_6domain12GrammarIssueINtNtCsjIUqRHSHb9k_4core7convert4FromNtB6_9IssueWireE4from11parse_usize
FN:117,_RNCNCNvNtNtNtCskasGANT74SO_17irish_mcp_gateway7clients9gramadoir5testss_32it_maps_issues_from_remote_array00Bb_
FN:113,_RNCNvNtNtNtCskasGANT74SO_17irish_mcp_gateway7clients9gramadoir5testss_32it_maps_issues_from_remote_array0B9_
FN:83,_RNvXs_NtNtCskasGANT74SO_17irish_mcp_gateway7clients9gramadoirNtNtB8_6domain12GrammarIssueINtNtCsjIUqRHSHb9k_4core7convert4FromNtB4_9IssueWireE4from
FN:113,_RNvNtNtNtCskasGANT74SO_17irish_mcp_gateway7clients9gramadoir5testss_32it_maps_issues_from_remote_array
FN:15,_RINvMNtNtCskasGANT74SO_17irish_mcp_gateway7clients9gramadoirNtB3_15GramadoirRemote3newNtNtCs3LPPTODPrjR_5alloc6string6StringEB7_
FN:15,_RINvMNtNtCskasGANT74SO_17irish_mcp_gateway7clients9gramadoirNtB3_15GramadoirRemote3newReEB7_
FN:38,_RNCNCNCNCNvMNtNtCskasGANT74SO_17irish_mcp_gateway7clients9gramadoirNtBa_15GramadoirRemote7analyze0000Be_
FN:45,_RNCNCNCNCNvMNtNtCskasGANT74SO_17irish_mcp_gateway7clients9gramadoirNtBa_15GramadoirRemote7analyze000s_0Be_
FN:32,_RNCNCNCNvMNtNtCskasGANT74SO_17irish_mcp_gateway7clients9gramadoirNtB8_15GramadoirRemote7analyze000Bc_
FN:28,_RNCNCNvMNtNtCskasGANT74SO_17irish_mcp_gateway7clients9gramadoirNtB6_15GramadoirRemote7analyze00Ba_
FN:23,_RNCNvMNtNtCskasGANT74SO_17irish_mcp_gateway7clients9gramadoirNtB4_15GramadoirRemote7analyze0B8_
FN:83,_RNvXs_NtNtCs6VTIHT4YZ9f_17irish_mcp_gateway7clients9gramadoirNtNtB8_6domain12GrammarIssueINtNtCsjIUqRHSHb9k_4core7convert4FromNtB4_9IssueWireE4from
FN:15,_RINvMNtNtCs6VTIHT4YZ9f_17irish_mcp_gateway7clients9gramadoirNtB3_15GramadoirRemote3newNtNtCs3LPPTODPrjR_5alloc6string6StringEB7_
FN:15,_RINvMNtNtCs6VTIHT4YZ9f_17irish_mcp_gateway7clients9gramadoirNtB3_15GramadoirRemote3newReEB7_
FN:38,_RNCNCNCNCNvMNtNtCs6VTIHT4YZ9f_17irish_mcp_gateway7clients9gramadoirNtBa_15GramadoirRemote7analyze0000Be_
FN:45,_RNCNCNCNCNvMNtNtCs6VTIHT4YZ9f_17irish_mcp_gateway7clients9gramadoirNtBa_15GramadoirRemote7analyze000s_0Be_
FN:32,_RNCNCNCNvMNtNtCs6VTIHT4YZ9f_17irish_mcp_gateway7clients9gramadoirNtB8_15GramadoirRemote7analyze000Bc_
FN:28,_RNCNCNvMNtNtCs6VTIHT4YZ9f_17irish_mcp_gateway7clients9gramadoirNtB6_15GramadoirRemote7analyze00Ba_
FN:23,_RNCNvMNtNtCs6VTIHT4YZ9f_17irish_mcp_gateway7clients9gramadoirNtB4_15GramadoirRemote7analyze0B8_
FN:117,_RNCNCNvNtNtNtCs6VTIHT4YZ9f_17irish_mcp_gateway7clients9gramadoir5testss_32it_maps_issues_from_remote_array00Bb_
FN:113,_RNCNvNtNtNtCs6VTIHT4YZ9f_17irish_mcp_gateway7clients9gramadoir5testss_32it_maps_issues_from_remote_array0B9_
FN:113,_RNvNtNtNtCs6VTIHT4YZ9f_17irish_mcp_gateway7clients9gramadoir5testss_32it_maps_issues_from_remote_array
FN:23,_RNvMNtNtCs6VTIHT4YZ9f_17irish_mcp_gateway7clients9gramadoirNtB2_15GramadoirRemote7analyze
FN:84,_RNvNvXs_NtNtCs6VTIHT4YZ9f_17irish_mcp_gateway7clients9gramadoirNtNtBa_6domain12GrammarIssueINtNtCsjIUqRHSHb9k_4core7convert4FromNtB6_9IssueWireE4from11parse_usize
FN:15,_RINvMNtNtCshBDQ5eqaBi2_17irish_mcp_gateway7clients9gramadoirNtB3_15GramadoirRemote3newNtNtCs3LPPTODPrjR_5alloc6string6StringEB7_
FN:38,_RNCNCNCNCNvMNtNtCshBDQ5eqaBi2_17irish_mcp_gateway7clients9gramadoirNtBa_15GramadoirRemote7analyze0000Be_
FN:45,_RNCNCNCNCNvMNtNtCshBDQ5eqaBi2_17irish_mcp_gateway7clients9gramadoirNtBa_15GramadoirRemote7analyze000s_0Be_
FN:32,_RNCNCNCNvMNtNtCshBDQ5eqaBi2_17irish_mcp_gateway7clients9gramadoirNtB8_15GramadoirRemote7analyze000Bc_
FN:28,_RNCNCNvMNtNtCshBDQ5eqaBi2_17irish_mcp_gateway7clients9gramadoirNtB6_15GramadoirRemote7analyze00Ba_
FN:23,_RNCNvMNtNtCshBDQ5eqaBi2_17irish_mcp_gateway7clients9gramadoirNtB4_15GramadoirRemote7analyze0B8_
FN:23,_RNvMNtNtCshBDQ5eqaBi2_17irish_mcp_gateway7clients9gramadoirNtB2_15GramadoirRemote7analyze
FN:84,_RNvNvXs_NtNtCshBDQ5eqaBi2_17irish_mcp_gateway7clients9gramadoirNtNtBa_6domain12GrammarIssueINtNtCsjIUqRHSHb9k_4core7convert4FromNtB6_9IssueWireE4from11parse_usize
FN:83,_RNvXs_NtNtCshBDQ5eqaBi2_17irish_mcp_gateway7clients9gramadoirNtNtB8_6domain12GrammarIssueINtNtCsjIUqRHSHb9k_4core7convert4FromNtB4_9IssueWireE4from
FNDA:0,_RNvXs_NtNtCsfRhWF7WD9Ln_17irish_mcp_gateway7clients9gramadoirNtNtB8_6domain12GrammarIssueINtNtCsjIUqRHSHb9k_4core7convert4FromNtB4_9IssueWireE4from
FNDA:0,_RINvMNtNtCsfRhWF7WD9Ln_17irish_mcp_gateway7clients9gramadoirNtB3_15GramadoirRemote3newNtNtCs3LPPTODPrjR_5alloc6string6StringEB7_
FNDA:0,_RNCNCNCNCNvMNtNtCsfRhWF7WD9Ln_17irish_mcp_gateway7clients9gramadoirNtBa_15GramadoirRemote7analyze0000Be_
FNDA:0,_RNCNCNCNCNvMNtNtCsfRhWF7WD9Ln_17irish_mcp_gateway7clients9gramadoirNtBa_15GramadoirRemote7analyze000s_0Be_
FNDA:0,_RNCNCNCNvMNtNtCsfRhWF7WD9Ln_17irish_mcp_gateway7clients9gramadoirNtB8_15GramadoirRemote7analyze000Bc_
FNDA:0,_RNCNCNvMNtNtCsfRhWF7WD9Ln_17irish_mcp_gateway7clients9gramadoirNtB6_15GramadoirRemote7analyze00Ba_
FNDA:0,_RNCNvMNtNtCsfRhWF7WD9Ln_17irish_mcp_gateway7clients9gramadoirNtB4_15GramadoirRemote7analyze0B8_
FNDA:0,_RNvMNtNtCsfRhWF7WD9Ln_17irish_mcp_gateway7clients9gramadoirNtB2_15GramadoirRemote7analyze
FNDA:0,_RNvNvXs_NtNtCsfRhWF7WD9Ln_17irish_mcp_gateway7clients9gramadoirNtNtBa_6domain12GrammarIssueINtNtCsjIUqRHSHb9k_4core7convert4FromNtB6_9IssueWireE4from11parse_usize
FNDA:6,_RNvMNtNtCskasGANT74SO_17irish_mcp_gateway7clients9gramadoirNtB2_15GramadoirRemote7analyze
FNDA:4,_RNvNvXs_NtNtCskasGANT74SO_17irish_mcp_gateway7clients9gramadoirNtNtBa_6domain12GrammarIssueINtNtCsjIUqRHSHb9k_4core7convert4FromNtB6_9IssueWireE4from11parse_usize
FNDA:1,_RNCNCNvNtNtNtCskasGANT74SO_17irish_mcp_gateway7clients9gramadoir5testss_32it_maps_issues_from_remote_array00Bb_
FNDA:1,_RNCNvNtNtNtCskasGANT74SO_17irish_mcp_gateway7clients9gramadoir5testss_32it_maps_issues_from_remote_array0B9_
FNDA:2,_RNvXs_NtNtCskasGANT74SO_17irish_mcp_gateway7clients9gramadoirNtNtB8_6domain12GrammarIssueINtNtCsjIUqRHSHb9k_4core7convert4FromNtB4_9IssueWireE4from
FNDA:1,_RNvNtNtNtCskasGANT74SO_17irish_mcp_gateway7clients9gramadoir5testss_32it_maps_issues_from_remote_array
FNDA:12,_RINvMNtNtCskasGANT74SO_17irish_mcp_gateway7clients9gramadoirNtB3_15GramadoirRemote3newNtNtCs3LPPTODPrjR_5alloc6string6StringEB7_
FNDA:1,_RINvMNtNtCskasGANT74SO_17irish_mcp_gateway7clients9gramadoirNtB3_15GramadoirRemote3newReEB7_
FNDA:12,_RNCNCNCNCNvMNtNtCskasGANT74SO_17irish_mcp_gateway7clients9gramadoirNtBa_15GramadoirRemote7analyze0000Be_
FNDA:0,_RNCNCNCNCNvMNtNtCskasGANT74SO_17irish_mcp_gateway7clients9gramadoirNtBa_15GramadoirRemote7analyze000s_0Be_
FNDA:14,_RNCNCNCNvMNtNtCskasGANT74SO_17irish_mcp_gateway7clients9gramadoirNtB8_15GramadoirRemote7analyze000Bc_
FNDA:14,_RNCNCNvMNtNtCskasGANT74SO_17irish_mcp_gateway7clients9gramadoirNtB6_15GramadoirRemote7analyze00Ba_
FNDA:6,_RNCNvMNtNtCskasGANT74SO_17irish_mcp_gateway7clients9gramadoirNtB4_15GramadoirRemote7analyze0B8_
FNDA:2,_RNvXs_NtNtCs6VTIHT4YZ9f_17irish_mcp_gateway7clients9gramadoirNtNtB8_6domain12GrammarIssueINtNtCsjIUqRHSHb9k_4core7convert4FromNtB4_9IssueWireE4from
FNDA:11,_RINvMNtNtCs6VTIHT4YZ9f_17irish_mcp_gateway7clients9gramadoirNtB3_15GramadoirRemote3newNtNtCs3LPPTODPrjR_5alloc6string6StringEB7_
FNDA:1,_RINvMNtNtCs6VTIHT4YZ9f_17irish_mcp_gateway7clients9gramadoirNtB3_15GramadoirRemote3newReEB7_
FNDA:9,_RNCNCNCNCNvMNtNtCs6VTIHT4YZ9f_17irish_mcp_gateway7clients9gramadoirNtBa_15GramadoirRemote7analyze0000Be_
FNDA:0,_RNCNCNCNCNvMNtNtCs6VTIHT4YZ9f_17irish_mcp_gateway7clients9gramadoirNtBa_15GramadoirRemote7analyze000s_0Be_
FNDA:11,_RNCNCNCNvMNtNtCs6VTIHT4YZ9f_17irish_mcp_gateway7clients9gramadoirNtB8_15GramadoirRemote7analyze000Bc_
FNDA:11,_RNCNCNvMNtNtCs6VTIHT4YZ9f_17irish_mcp_gateway7clients9gramadoirNtB6_15GramadoirRemote7analyze00Ba_
FNDA:5,_RNCNvMNtNtCs6VTIHT4YZ9f_17irish_mcp_gateway7clients9gramadoirNtB4_15GramadoirRemote7analyze0B8_
FNDA:1,_RNCNCNvNtNtNtCs6VTIHT4YZ9f_17irish_mcp_gateway7clients9gramadoir5testss_32it_maps_issues_from_remote_array00Bb_
FNDA:1,_RNCNvNtNtNtCs6VTIHT4YZ9f_17irish_mcp_gateway7clients9gramadoir5testss_32it_maps_issues_from_remote_array0B9_
FNDA:1,_RNvNtNtNtCs6VTIHT4YZ9f_17irish_mcp_gateway7clients9gramadoir5testss_32it_maps_issues_from_remote_array
FNDA:5,_RNvMNtNtCs6VTIHT4YZ9f_17irish_mcp_gateway7clients9gramadoirNtB2_15GramadoirRemote7analyze
FNDA:4,_RNvNvXs_NtNtCs6VTIHT4YZ9f_17irish_mcp_gateway7clients9gramadoirNtNtBa_6domain12GrammarIssueINtNtCsjIUqRHSHb9k_4core7convert4FromNtB6_9IssueWireE4from11parse_usize
FNDA:1,_RINvMNtNtCshBDQ5eqaBi2_17irish_mcp_gateway7clients9gramadoirNtB3_15GramadoirRemote3newNtNtCs3LPPTODPrjR_5alloc6string6StringEB7_
FNDA:0,_RNCNCNCNCNvMNtNtCshBDQ5eqaBi2_17irish_mcp_gateway7clients9gramadoirNtBa_15GramadoirRemote7analyze0000Be_
FNDA:0,_RNCNCNCNCNvMNtNtCshBDQ5eqaBi2_17irish_mcp_gateway7clients9gramadoirNtBa_15GramadoirRemote7analyze000s_0Be_
FNDA:1,_RNCNCNCNvMNtNtCshBDQ5eqaBi2_17irish_mcp_gateway7clients9gramadoirNtB8_15GramadoirRemote7analyze000Bc_
FNDA:1,_RNCNCNvMNtNtCshBDQ5eqaBi2_17irish_mcp_gateway7clients9gramadoirNtB6_15GramadoirRemote7analyze00Ba_
FNDA:1,_RNCNvMNtNtCshBDQ5eqaBi2_17irish_mcp_gateway7clients9gramadoirNtB4_15GramadoirRemote7analyze0B8_
FNDA:1,_RNvMNtNtCshBDQ5eqaBi2_17irish_mcp_gateway7clients9gramadoirNtB2_15GramadoirRemote7analyze
FNDA:2,_RNvNvXs_NtNtCshBDQ5eqaBi2_17irish_mcp_gateway7clients9gramadoirNtNtBa_6domain12GrammarIssueINtNtCsjIUqRHSHb9k_4core7convert4FromNtB6_9IssueWireE4from11parse_usize
FNDA:1,_RNvXs_NtNtCshBDQ5eqaBi2_17irish_mcp_gateway7clients9gramadoirNtNtB8_6domain12GrammarIssueINtNtCsjIUqRHSHb9k_4core7convert4FromNtB4_9IssueWireE4from
FNF:12
FNH:11
DA:15,26
DA:16,26
DA:17,26
DA:18,26
DA:19,26
DA:20,26
DA:21,26
DA:23,12
DA:24,12
DA:25,12
DA:26,12
DA:27,12
DA:28,26
DA:29,26
DA:30,26
DA:31,26
DA:32,26
DA:33,26
DA:34,26
DA:35,26
DA:36,26
DA:37,26
DA:38,26
DA:39,5
DA:40,0
DA:41,0
DA:42,0
DA:43,0
DA:44,5
DA:45,5
DA:46,26
DA:47,26
DA:48,12
DA:50,5
DA:51,12
DA:83,5
DA:84,10
DA:85,10
DA:86,10
DA:87,5
DA:88,5
DA:89,5
DA:90,5
DA:91,5
DA:93,0
DA:96,5
DA:97,5
DA:98,5
DA:99,5
DA:100,5
DA:101,5
DA:102,5
DA:103,5
DA:113,2
DA:114,2
DA:117,2
DA:118,2
DA:119,2
DA:120,2
DA:121,2
DA:122,2
DA:123,2
DA:124,2
DA:125,2
DA:126,2
DA:127,2
DA:128,2
DA:129,2
DA:130,2
DA:131,2
DA:132,2
DA:133,2
DA:134,2
DA:136,2
DA:137,2
DA:138,2
DA:140,2
DA:141,2
DA:142,2
DA:143,2
DA:144,2
DA:145,2
BRF:0
BRH:0
LF:89
LH:83
end_of_record
SF:/Users/amacgafraidh/Desktop/irish-mcp-gateway/src/core/content.rs
FN:10,_RNvXNtNtCsfRhWF7WD9Ln_17irish_mcp_gateway4core7contentNtB2_14StructuredJsonINtNtCsjIUqRHSHb9k_4core7convert4FromNtNtCs9fHZuYpmAXc_10serde_json5value5ValueE4from
FN:10,_RNvXNtNtCskasGANT74SO_17irish_mcp_gateway4core7contentNtB2_14StructuredJsonINtNtCsjIUqRHSHb9k_4core7convert4FromNtNtCs9fHZuYpmAXc_10serde_json5value5ValueE4from
FN:17,_RNvNtNtNtCskasGANT74SO_17irish_mcp_gateway4core7content5testss_9roundtrip
FN:10,_RNvXNtNtCs6VTIHT4YZ9f_17irish_mcp_gateway4core7contentNtB2_14StructuredJsonINtNtCsjIUqRHSHb9k_4core7convert4FromNtNtCs9fHZuYpmAXc_10serde_json5value5ValueE4from
FN:17,_RNvNtNtNtCs6VTIHT4YZ9f_17irish_mcp_gateway4core7content5testss_9roundtrip
FN:10,_RNvXNtNtCshBDQ5eqaBi2_17irish_mcp_gateway4core7contentNtB2_14StructuredJsonINtNtCsjIUqRHSHb9k_4core7convert4FromNtNtCs9fHZuYpmAXc_10serde_json5value5ValueE4from
FNDA:0,_RNvXNtNtCsfRhWF7WD9Ln_17irish_mcp_gateway4core7contentNtB2_14StructuredJsonINtNtCsjIUqRHSHb9k_4core7convert4FromNtNtCs9fHZuYpmAXc_10serde_json5value5ValueE4from
FNDA:1,_RNvXNtNtCskasGANT74SO_17irish_mcp_gateway4core7contentNtB2_14StructuredJsonINtNtCsjIUqRHSHb9k_4core7convert4FromNtNtCs9fHZuYpmAXc_10serde_json5value5ValueE4from
FNDA:1,_RNvNtNtNtCskasGANT74SO_17irish_mcp_gateway4core7content5testss_9roundtrip
FNDA:1,_RNvXNtNtCs6VTIHT4YZ9f_17irish_mcp_gateway4core7contentNtB2_14StructuredJsonINtNtCsjIUqRHSHb9k_4core7convert4FromNtNtCs9fHZuYpmAXc_10serde_json5value5ValueE4from
FNDA:1,_RNvNtNtNtCs6VTIHT4YZ9f_17irish_mcp_gateway4core7content5testss_9roundtrip
FNDA:0,_RNvXNtNtCshBDQ5eqaBi2_17irish_mcp_gateway4core7contentNtB2_14StructuredJsonINtNtCsjIUqRHSHb9k_4core7convert4FromNtNtCs9fHZuYpmAXc_10serde_json5value5ValueE4from
FNF:2
FNH:2
DA:10,2
DA:17,2
DA:18,2
DA:19,2
DA:20,2
DA:21,2
BRF:0
BRH:0
LF:6
LH:6
end_of_record
SF:/Users/amacgafraidh/Desktop/irish-mcp-gateway/src/core/error.rs
FN:11,_RNvXNtNtCsfRhWF7WD9Ln_17irish_mcp_gateway4core5errorNtB2_12GatewayErrorINtNtCsjIUqRHSHb9k_4core7convert4FromNtCsFbY1OLnRKL_6anyhow5ErrorE4from
FN:11,_RNvXNtNtCskasGANT74SO_17irish_mcp_gateway4core5errorNtB2_12GatewayErrorINtNtCsjIUqRHSHb9k_4core7convert4FromNtCsFbY1OLnRKL_6anyhow5ErrorE4from
FN:21,_RNvNtNtNtCskasGANT74SO_17irish_mcp_gateway4core5error5testss_19it_displays_message
FN:11,_RNvXNtNtCs6VTIHT4YZ9f_17irish_mcp_gateway4core5errorNtB2_12GatewayErrorINtNtCsjIUqRHSHb9k_4core7convert4FromNtCsFbY1OLnRKL_6anyhow5ErrorE4from
FN:21,_RNvNtNtNtCs6VTIHT4YZ9f_17irish_mcp_gateway4core5error5testss_19it_displays_message
FN:11,_RNvXNtNtCshBDQ5eqaBi2_17irish_mcp_gateway4core5errorNtB2_12GatewayErrorINtNtCsjIUqRHSHb9k_4core7convert4FromNtCsFbY1OLnRKL_6anyhow5ErrorE4from
FNDA:0,_RNvXNtNtCsfRhWF7WD9Ln_17irish_mcp_gateway4core5errorNtB2_12GatewayErrorINtNtCsjIUqRHSHb9k_4core7convert4FromNtCsFbY1OLnRKL_6anyhow5ErrorE4from
FNDA:0,_RNvXNtNtCskasGANT74SO_17irish_mcp_gateway4core5errorNtB2_12GatewayErrorINtNtCsjIUqRHSHb9k_4core7convert4FromNtCsFbY1OLnRKL_6anyhow5ErrorE4from
FNDA:1,_RNvNtNtNtCskasGANT74SO_17irish_mcp_gateway4core5error5testss_19it_displays_message
FNDA:0,_RNvXNtNtCs6VTIHT4YZ9f_17irish_mcp_gateway4core5errorNtB2_12GatewayErrorINtNtCsjIUqRHSHb9k_4core7convert4FromNtCsFbY1OLnRKL_6anyhow5ErrorE4from
FNDA:1,_RNvNtNtNtCs6VTIHT4YZ9f_17irish_mcp_gateway4core5error5testss_19it_displays_message
FNDA:0,_RNvXNtNtCshBDQ5eqaBi2_17irish_mcp_gateway4core5errorNtB2_12GatewayErrorINtNtCsjIUqRHSHb9k_4core7convert4FromNtCsFbY1OLnRKL_6anyhow5ErrorE4from
FNF:2
FNH:1
DA:11,0
DA:12,0
DA:13,0
DA:21,2
DA:22,2
DA:23,2
DA:24,2
BRF:0
BRH:0
LF:7
LH:4
end_of_record
SF:/Users/amacgafraidh/Desktop/irish-mcp-gateway/src/core/mcp.rs
FN:38,_RINvNtNtCsfRhWF7WD9Ln_17irish_mcp_gateway4core3mcp3errNtNtCs3LPPTODPrjR_5alloc6string6StringEB6_
FN:35,_RNvNtNtCsfRhWF7WD9Ln_17irish_mcp_gateway4core3mcp2ok
FN:60,_RNvNtNtNtCskasGANT74SO_17irish_mcp_gateway4core3mcp5testss_31it_serializes_initialize_result
FN:38,_RINvNtNtCskasGANT74SO_17irish_mcp_gateway4core3mcp3errNtNtCs3LPPTODPrjR_5alloc6string6StringEB6_
FN:35,_RNvNtNtCskasGANT74SO_17irish_mcp_gateway4core3mcp2ok
FN:35,_RNvNtNtCs6VTIHT4YZ9f_17irish_mcp_gateway4core3mcp2ok
FN:60,_RNvNtNtNtCs6VTIHT4YZ9f_17irish_mcp_gateway4core3mcp5testss_31it_serializes_initialize_result
FN:38,_RINvNtNtCs6VTIHT4YZ9f_17irish_mcp_gateway4core3mcp3errNtNtCs3LPPTODPrjR_5alloc6string6StringEB6_
FN:35,_RNvNtNtCshBDQ5eqaBi2_17irish_mcp_gateway4core3mcp2ok
FN:38,_RINvNtNtCshBDQ5eqaBi2_17irish_mcp_gateway4core3mcp3errNtNtCs3LPPTODPrjR_5alloc6string6StringEB6_
FNDA:0,_RINvNtNtCsfRhWF7WD9Ln_17irish_mcp_gateway4core3mcp3errNtNtCs3LPPTODPrjR_5alloc6string6StringEB6_
FNDA:0,_RNvNtNtCsfRhWF7WD9Ln_17irish_mcp_gateway4core3mcp2ok
FNDA:1,_RNvNtNtNtCskasGANT74SO_17irish_mcp_gateway4core3mcp5testss_31it_serializes_initialize_result
FNDA:3,_RINvNtNtCskasGANT74SO_17irish_mcp_gateway4core3mcp3errNtNtCs3LPPTODPrjR_5alloc6string6StringEB6_
FNDA:3,_RNvNtNtCskasGANT74SO_17irish_mcp_gateway4core3mcp2ok
FNDA:3,_RNvNtNtCs6VTIHT4YZ9f_17irish_mcp_gateway4core3mcp2ok
FNDA:1,_RNvNtNtNtCs6VTIHT4YZ9f_17irish_mcp_gateway4core3mcp5testss_31it_serializes_initialize_result
FNDA:3,_RINvNtNtCs6VTIHT4YZ9f_17irish_mcp_gateway4core3mcp3errNtNtCs3LPPTODPrjR_5alloc6string6StringEB6_
FNDA:2,_RNvNtNtCshBDQ5eqaBi2_17irish_mcp_gateway4core3mcp2ok
FNDA:0,_RINvNtNtCshBDQ5eqaBi2_17irish_mcp_gateway4core3mcp3errNtNtCs3LPPTODPrjR_5alloc6string6StringEB6_
FNF:3
FNH:3
DA:35,8
DA:36,8
DA:37,8
DA:38,6
DA:39,6
DA:40,6
DA:60,2
DA:61,2
DA:62,2
DA:63,2
DA:64,2
BRF:0
BRH:0
LF:11
LH:11
end_of_record
SF:/Users/amacgafraidh/Desktop/irish-mcp-gateway/src/core/mod.rs
FN:13,_RNvNtNtCskasGANT74SO_17irish_mcp_gateway4core5testss_20core_module_compiles
FN:13,_RNvNtNtCs6VTIHT4YZ9f_17irish_mcp_gateway4core5testss_20core_module_compiles
FNDA:1,_RNvNtNtCskasGANT74SO_17irish_mcp_gateway4core5testss_20core_module_compiles
FNDA:1,_RNvNtNtCs6VTIHT4YZ9f_17irish_mcp_gateway4core5testss_20core_module_compiles
FNF:1
FNH:1
DA:13,2
DA:15,2
DA:16,2
BRF:0
BRH:0
LF:3
LH:3
end_of_record
SF:/Users/amacgafraidh/Desktop/irish-mcp-gateway/src/core/tool.rs
FN:30,_RNvXNtNtNtCskasGANT74SO_17irish_mcp_gateway4core4tool5testsNtB2_4EchoNtB4_8ToolSpec11description
FN:31,_RNvXNtNtNtCskasGANT74SO_17irish_mcp_gateway4core4tool5testsNtB2_4EchoNtB4_8ToolSpec12input_schema
FN:29,_RNvXNtNtNtCskasGANT74SO_17irish_mcp_gateway4core4tool5testsNtB2_4EchoNtB4_8ToolSpec4name
FN:42,_RNvNtNtNtCskasGANT74SO_17irish_mcp_gateway4core4tool5testss_12it_runs_echo
FN:36,_RNvXs_NtNtNtCskasGANT74SO_17irish_mcp_gateway4core4tool5testsNtB4_4EchoNtB6_4Tool4call
FN:42,_RNCNvNtNtNtCskasGANT74SO_17irish_mcp_gateway4core4tool5testss_12it_runs_echo0B9_
FN:30,_RNvXNtNtNtCs6VTIHT4YZ9f_17irish_mcp_gateway4core4tool5testsNtB2_4EchoNtB4_8ToolSpec11description
FN:31,_RNvXNtNtNtCs6VTIHT4YZ9f_17irish_mcp_gateway4core4tool5testsNtB2_4EchoNtB4_8ToolSpec12input_schema
FN:29,_RNvXNtNtNtCs6VTIHT4YZ9f_17irish_mcp_gateway4core4tool5testsNtB2_4EchoNtB4_8ToolSpec4name
FN:42,_RNCNvNtNtNtCs6VTIHT4YZ9f_17irish_mcp_gateway4core4tool5testss_12it_runs_echo0B9_
FN:42,_RNvNtNtNtCs6VTIHT4YZ9f_17irish_mcp_gateway4core4tool5testss_12it_runs_echo
FN:36,_RNvXs_NtNtNtCs6VTIHT4YZ9f_17irish_mcp_gateway4core4tool5testsNtB4_4EchoNtB6_4Tool4call
FNDA:0,_RNvXNtNtNtCskasGANT74SO_17irish_mcp_gateway4core4tool5testsNtB2_4EchoNtB4_8ToolSpec11description
FNDA:0,_RNvXNtNtNtCskasGANT74SO_17irish_mcp_gateway4core4tool5testsNtB2_4EchoNtB4_8ToolSpec12input_schema
FNDA:0,_RNvXNtNtNtCskasGANT74SO_17irish_mcp_gateway4core4tool5testsNtB2_4EchoNtB4_8ToolSpec4name
FNDA:1,_RNvNtNtNtCskasGANT74SO_17irish_mcp_gateway4core4tool5testss_12it_runs_echo
FNDA:1,_RNvXs_NtNtNtCskasGANT74SO_17irish_mcp_gateway4core4tool5testsNtB4_4EchoNtB6_4Tool4call
FNDA:1,_RNCNvNtNtNtCskasGANT74SO_17irish_mcp_gateway4core4tool5testss_12it_runs_echo0B9_
FNDA:0,_RNvXNtNtNtCs6VTIHT4YZ9f_17irish_mcp_gateway4core4tool5testsNtB2_4EchoNtB4_8ToolSpec11description
FNDA:0,_RNvXNtNtNtCs6VTIHT4YZ9f_17irish_mcp_gateway4core4tool5testsNtB2_4EchoNtB4_8ToolSpec12input_schema
FNDA:0,_RNvXNtNtNtCs6VTIHT4YZ9f_17irish_mcp_gateway4core4tool5testsNtB2_4EchoNtB4_8ToolSpec4name
FNDA:1,_RNCNvNtNtNtCs6VTIHT4YZ9f_17irish_mcp_gateway4core4tool5testss_12it_runs_echo0B9_
FNDA:1,_RNvNtNtNtCs6VTIHT4YZ9f_17irish_mcp_gateway4core4tool5testss_12it_runs_echo
FNDA:1,_RNvXs_NtNtNtCs6VTIHT4YZ9f_17irish_mcp_gateway4core4tool5testsNtB4_4EchoNtB6_4Tool4call
FNF:6
FNH:3
DA:29,0
DA:30,0
DA:31,0
DA:36,2
DA:38,2
DA:42,2
DA:43,2
DA:44,2
DA:45,2
DA:46,2
BRF:0
BRH:0
LF:12
LH:9
end_of_record
SF:/Users/amacgafraidh/Desktop/irish-mcp-gateway/src/domain/mod.rs
FN:34,_RNvNtNtCskasGANT74SO_17irish_mcp_gateway6domain5testss_27it_knows_tool_error_display
FN:40,_RNvNtNtCskasGANT74SO_17irish_mcp_gateway6domain5testss_38it_knows_grammar_issue_serde_roundtrip
FN:34,_RNvNtNtCs6VTIHT4YZ9f_17irish_mcp_gateway6domain5testss_27it_knows_tool_error_display
FN:40,_RNvNtNtCs6VTIHT4YZ9f_17irish_mcp_gateway6domain5testss_38it_knows_grammar_issue_serde_roundtrip
FNDA:1,_RNvNtNtCskasGANT74SO_17irish_mcp_gateway6domain5testss_27it_knows_tool_error_display
FNDA:1,_RNvNtNtCskasGANT74SO_17irish_mcp_gateway6domain5testss_38it_knows_grammar_issue_serde_roundtrip
FNDA:1,_RNvNtNtCs6VTIHT4YZ9f_17irish_mcp_gateway6domain5testss_27it_knows_tool_error_display
FNDA:1,_RNvNtNtCs6VTIHT4YZ9f_17irish_mcp_gateway6domain5testss_38it_knows_grammar_issue_serde_roundtrip
FNF:2
FNH:2
DA:34,2
DA:35,2
DA:36,2
DA:37,2
DA:40,2
DA:41,2
DA:42,2
DA:43,2
DA:44,2
DA:45,2
DA:46,2
DA:47,2
DA:48,2
DA:49,2
DA:50,2
DA:51,2
DA:52,2
BRF:0
BRH:0
LF:17
LH:17
end_of_record
SF:/Users/amacgafraidh/Desktop/irish-mcp-gateway/src/infra/config.rs
FN:8,_RNvMNtNtCsfRhWF7WD9Ln_17irish_mcp_gateway5infra6configNtB2_6Config8from_env
FN:9,_RNCNvMNtNtCsfRhWF7WD9Ln_17irish_mcp_gateway5infra6configNtB4_6Config8from_env0B8_
FN:15,_RNCNvMNtNtCsfRhWF7WD9Ln_17irish_mcp_gateway5infra6configNtB4_6Config8from_envs0_0B8_
FN:12,_RNCNvMNtNtCsfRhWF7WD9Ln_17irish_mcp_gateway5infra6configNtB4_6Config8from_envs_0B8_
FN:8,_RNvMNtNtCskasGANT74SO_17irish_mcp_gateway5infra6configNtB2_6Config8from_env
FN:31,_RNvNtNtNtCskasGANT74SO_17irish_mcp_gateway5infra6config5testss_35it_parses_env_and_defaults_serially
FN:9,_RNCNvMNtNtCskasGANT74SO_17irish_mcp_gateway5infra6configNtB4_6Config8from_env0B8_
FN:15,_RNCNvMNtNtCskasGANT74SO_17irish_mcp_gateway5infra6configNtB4_6Config8from_envs0_0B8_
FN:12,_RNCNvMNtNtCskasGANT74SO_17irish_mcp_gateway5infra6configNtB4_6Config8from_envs_0B8_
FN:9,_RNCNvMNtNtCs6VTIHT4YZ9f_17irish_mcp_gateway5infra6configNtB4_6Config8from_env0B8_
FN:15,_RNCNvMNtNtCs6VTIHT4YZ9f_17irish_mcp_gateway5infra6configNtB4_6Config8from_envs0_0B8_
FN:12,_RNCNvMNtNtCs6VTIHT4YZ9f_17irish_mcp_gateway5infra6configNtB4_6Config8from_envs_0B8_
FN:8,_RNvMNtNtCs6VTIHT4YZ9f_17irish_mcp_gateway5infra6configNtB2_6Config8from_env
FN:31,_RNvNtNtNtCs6VTIHT4YZ9f_17irish_mcp_gateway5infra6config5testss_35it_parses_env_and_defaults_serially
FN:8,_RNvMNtNtCshBDQ5eqaBi2_17irish_mcp_gateway5infra6configNtB2_6Config8from_env
FN:9,_RNCNvMNtNtCshBDQ5eqaBi2_17irish_mcp_gateway5infra6configNtB4_6Config8from_env0B8_
FN:15,_RNCNvMNtNtCshBDQ5eqaBi2_17irish_mcp_gateway5infra6configNtB4_6Config8from_envs0_0B8_
FN:12,_RNCNvMNtNtCshBDQ5eqaBi2_17irish_mcp_gateway5infra6configNtB4_6Config8from_envs_0B8_
FNDA:0,_RNvMNtNtCsfRhWF7WD9Ln_17irish_mcp_gateway5infra6configNtB2_6Config8from_env
FNDA:0,_RNCNvMNtNtCsfRhWF7WD9Ln_17irish_mcp_gateway5infra6configNtB4_6Config8from_env0B8_
FNDA:0,_RNCNvMNtNtCsfRhWF7WD9Ln_17irish_mcp_gateway5infra6configNtB4_6Config8from_envs0_0B8_
FNDA:0,_RNCNvMNtNtCsfRhWF7WD9Ln_17irish_mcp_gateway5infra6configNtB4_6Config8from_envs_0B8_
FNDA:6,_RNvMNtNtCskasGANT74SO_17irish_mcp_gateway5infra6configNtB2_6Config8from_env
FNDA:1,_RNvNtNtNtCskasGANT74SO_17irish_mcp_gateway5infra6config5testss_35it_parses_env_and_defaults_serially
FNDA:1,_RNCNvMNtNtCskasGANT74SO_17irish_mcp_gateway5infra6configNtB4_6Config8from_env0B8_
FNDA:2,_RNCNvMNtNtCskasGANT74SO_17irish_mcp_gateway5infra6configNtB4_6Config8from_envs0_0B8_
FNDA:4,_RNCNvMNtNtCskasGANT74SO_17irish_mcp_gateway5infra6configNtB4_6Config8from_envs_0B8_
FNDA:1,_RNCNvMNtNtCs6VTIHT4YZ9f_17irish_mcp_gateway5infra6configNtB4_6Config8from_env0B8_
FNDA:2,_RNCNvMNtNtCs6VTIHT4YZ9f_17irish_mcp_gateway5infra6configNtB4_6Config8from_envs0_0B8_
FNDA:2,_RNCNvMNtNtCs6VTIHT4YZ9f_17irish_mcp_gateway5infra6configNtB4_6Config8from_envs_0B8_
FNDA:2,_RNvMNtNtCs6VTIHT4YZ9f_17irish_mcp_gateway5infra6configNtB2_6Config8from_env
FNDA:1,_RNvNtNtNtCs6VTIHT4YZ9f_17irish_mcp_gateway5infra6config5testss_35it_parses_env_and_defaults_serially
FNDA:0,_RNvMNtNtCshBDQ5eqaBi2_17irish_mcp_gateway5infra6configNtB2_6Config8from_env
FNDA:0,_RNCNvMNtNtCshBDQ5eqaBi2_17irish_mcp_gateway5infra6configNtB4_6Config8from_env0B8_
FNDA:0,_RNCNvMNtNtCshBDQ5eqaBi2_17irish_mcp_gateway5infra6configNtB4_6Config8from_envs0_0B8_
FNDA:0,_RNCNvMNtNtCshBDQ5eqaBi2_17irish_mcp_gateway5infra6configNtB4_6Config8from_envs_0B8_
FNF:5
FNH:5
DA:8,8
DA:9,8
DA:10,8
DA:11,8
DA:12,8
DA:13,8
DA:14,8
DA:15,8
DA:16,8
DA:18,8
DA:19,8
DA:20,8
DA:21,8
DA:22,8
DA:23,8
DA:31,2
DA:33,2
DA:34,2
DA:35,2
DA:36,2
DA:37,2
DA:38,2
DA:39,2
DA:42,2
DA:43,2
DA:44,2
DA:45,2
DA:46,2
DA:47,2
DA:48,2
DA:51,2
DA:52,2
DA:53,2
DA:54,2
BRF:0
BRH:0
LF:37
LH:37
end_of_record
SF:/Users/amacgafraidh/Desktop/irish-mcp-gateway/src/infra/http/json.rs
FN:14,_RINvNtNtNtCsfRhWF7WD9Ln_17irish_mcp_gateway5infra4http4json11parse_errorpEB8_
FN:6,_RNvNtNtNtCsfRhWF7WD9Ln_17irish_mcp_gateway5infra4http4json2ok
FN:10,_RINvNtNtNtCsfRhWF7WD9Ln_17irish_mcp_gateway5infra4http4json5errorNtNtCs3LPPTODPrjR_5alloc6string6StringEB8_
FN:10,_RINvNtNtNtCskasGANT74SO_17irish_mcp_gateway5infra4http4json5errorNtNtCs3LPPTODPrjR_5alloc6string6StringEB8_
FN:14,_RINvNtNtNtCskasGANT74SO_17irish_mcp_gateway5infra4http4json11parse_errorpEB8_
FN:6,_RNvNtNtNtCskasGANT74SO_17irish_mcp_gateway5infra4http4json2ok
FN:14,_RINvNtNtNtCs6VTIHT4YZ9f_17irish_mcp_gateway5infra4http4json11parse_errorpEB8_
FN:6,_RNvNtNtNtCs6VTIHT4YZ9f_17irish_mcp_gateway5infra4http4json2ok
FN:10,_RINvNtNtNtCs6VTIHT4YZ9f_17irish_mcp_gateway5infra4http4json5errorNtNtCs3LPPTODPrjR_5alloc6string6StringEB8_
FN:14,_RINvNtNtNtCshBDQ5eqaBi2_17irish_mcp_gateway5infra4http4json11parse_errorpEB8_
FN:10,_RINvNtNtNtCshBDQ5eqaBi2_17irish_mcp_gateway5infra4http4json5errorNtNtCs3LPPTODPrjR_5alloc6string6StringEB8_
FN:6,_RNvNtNtNtCshBDQ5eqaBi2_17irish_mcp_gateway5infra4http4json2ok
FNDA:0,_RINvNtNtNtCsfRhWF7WD9Ln_17irish_mcp_gateway5infra4http4json11parse_errorpEB8_
FNDA:0,_RNvNtNtNtCsfRhWF7WD9Ln_17irish_mcp_gateway5infra4http4json2ok
FNDA:0,_RINvNtNtNtCsfRhWF7WD9Ln_17irish_mcp_gateway5infra4http4json5errorNtNtCs3LPPTODPrjR_5alloc6string6StringEB8_
FNDA:3,_RINvNtNtNtCskasGANT74SO_17irish_mcp_gateway5infra4http4json5errorNtNtCs3LPPTODPrjR_5alloc6string6StringEB8_
FNDA:0,_RINvNtNtNtCskasGANT74SO_17irish_mcp_gateway5infra4http4json11parse_errorpEB8_
FNDA:3,_RNvNtNtNtCskasGANT74SO_17irish_mcp_gateway5infra4http4json2ok
FNDA:0,_RINvNtNtNtCs6VTIHT4YZ9f_17irish_mcp_gateway5infra4http4json11parse_errorpEB8_
FNDA:3,_RNvNtNtNtCs6VTIHT4YZ9f_17irish_mcp_gateway5infra4http4json2ok
FNDA:3,_RINvNtNtNtCs6VTIHT4YZ9f_17irish_mcp_gateway5infra4http4json5errorNtNtCs3LPPTODPrjR_5alloc6string6StringEB8_
FNDA:0,_RINvNtNtNtCshBDQ5eqaBi2_17irish_mcp_gateway5infra4http4json11parse_errorpEB8_
FNDA:0,_RINvNtNtNtCshBDQ5eqaBi2_17irish_mcp_gateway5infra4http4json5errorNtNtCs3LPPTODPrjR_5alloc6string6StringEB8_
FNDA:2,_RNvNtNtNtCshBDQ5eqaBi2_17irish_mcp_gateway5infra4http4json2ok
FNF:3
FNH:2
DA:6,8
DA:7,8
DA:8,8
DA:10,6
DA:11,6
DA:12,6
DA:14,0
DA:15,0
DA:16,0
BRF:0
BRH:0
LF:9
LH:6
end_of_record
SF:/Users/amacgafraidh/Desktop/irish-mcp-gateway/src/infra/http/sse.rs
FN:6,_RNvNtNtNtNtCskasGANT74SO_17irish_mcp_gateway5infra4http3sse5testss_11it_compiles
FN:6,_RNvNtNtNtNtCs6VTIHT4YZ9f_17irish_mcp_gateway5infra4http3sse5testss_11it_compiles
FNDA:1,_RNvNtNtNtNtCskasGANT74SO_17irish_mcp_gateway5infra4http3sse5testss_11it_compiles
FNDA:1,_RNvNtNtNtNtCs6VTIHT4YZ9f_17irish_mcp_gateway5infra4http3sse5testss_11it_compiles
FNF:1
FNH:1
DA:6,2
DA:7,2
DA:8,2
BRF:0
BRH:0
LF:3
LH:3
end_of_record
SF:/Users/amacgafraidh/Desktop/irish-mcp-gateway/src/infra/http_app.rs
FN:12,_RNCNvNtNtCsfRhWF7WD9Ln_17irish_mcp_gateway5infra8http_app12health_check0B7_
FN:50,_RNCNvNtNtCsfRhWF7WD9Ln_17irish_mcp_gateway5infra8http_app17build_app_default0B7_
FN:68,_RNCNvNtNtCsfRhWF7WD9Ln_17irish_mcp_gateway5infra8http_app29build_app_with_deprecated_api0B7_
FN:12,_RNvNtNtCsfRhWF7WD9Ln_17irish_mcp_gateway5infra8http_app12health_check
FN:46,_RNvNtNtCsfRhWF7WD9Ln_17irish_mcp_gateway5infra8http_app17build_app_default
FN:64,_RNvNtNtCsfRhWF7WD9Ln_17irish_mcp_gateway5infra8http_app29build_app_with_deprecated_api
FN:12,_RNCNvNtNtCskasGANT74SO_17irish_mcp_gateway5infra8http_app12health_check0B7_
FN:50,_RNCNvNtNtCskasGANT74SO_17irish_mcp_gateway5infra8http_app17build_app_default0B7_
FN:68,_RNCNvNtNtCskasGANT74SO_17irish_mcp_gateway5infra8http_app29build_app_with_deprecated_api0B7_
FN:90,_RNvNtNtNtCskasGANT74SO_17irish_mcp_gateway5infra8http_app5testss_34healthz_responds_ok_on_default_app
FN:110,_RNvNtNtNtCskasGANT74SO_17irish_mcp_gateway5infra8http_app5testss_35healthz_returns_structured_response
FN:130,_RNvNtNtNtCskasGANT74SO_17irish_mcp_gateway5infra8http_app5testss_54deprecated_route_handles_grammar_check_when_configured
FN:12,_RNvNtNtCskasGANT74SO_17irish_mcp_gateway5infra8http_app12health_check
FN:46,_RNvNtNtCskasGANT74SO_17irish_mcp_gateway5infra8http_app17build_app_default
FN:64,_RNvNtNtCskasGANT74SO_17irish_mcp_gateway5infra8http_app29build_app_with_deprecated_api
FN:90,_RNCNvNtNtNtCskasGANT74SO_17irish_mcp_gateway5infra8http_app5testss_34healthz_responds_ok_on_default_app0B9_
FN:110,_RNCNvNtNtNtCskasGANT74SO_17irish_mcp_gateway5infra8http_app5testss_35healthz_returns_structured_response0B9_
FN:130,_RNCNvNtNtNtCskasGANT74SO_17irish_mcp_gateway5infra8http_app5testss_54deprecated_route_handles_grammar_check_when_configured0B9_
FN:90,_RNvNtNtNtCs6VTIHT4YZ9f_17irish_mcp_gateway5infra8http_app5testss_34healthz_responds_ok_on_default_app
FN:110,_RNvNtNtNtCs6VTIHT4YZ9f_17irish_mcp_gateway5infra8http_app5testss_35healthz_returns_structured_response
FN:130,_RNvNtNtNtCs6VTIHT4YZ9f_17irish_mcp_gateway5infra8http_app5testss_54deprecated_route_handles_grammar_check_when_configured
FN:12,_RNvNtNtCs6VTIHT4YZ9f_17irish_mcp_gateway5infra8http_app12health_check
FN:46,_RNvNtNtCs6VTIHT4YZ9f_17irish_mcp_gateway5infra8http_app17build_app_default
FN:64,_RNvNtNtCs6VTIHT4YZ9f_17irish_mcp_gateway5infra8http_app29build_app_with_deprecated_api
FN:12,_RNCNvNtNtCs6VTIHT4YZ9f_17irish_mcp_gateway5infra8http_app12health_check0B7_
FN:50,_RNCNvNtNtCs6VTIHT4YZ9f_17irish_mcp_gateway5infra8http_app17build_app_default0B7_
FN:68,_RNCNvNtNtCs6VTIHT4YZ9f_17irish_mcp_gateway5infra8http_app29build_app_with_deprecated_api0B7_
FN:90,_RNCNvNtNtNtCs6VTIHT4YZ9f_17irish_mcp_gateway5infra8http_app5testss_34healthz_responds_ok_on_default_app0B9_
FN:110,_RNCNvNtNtNtCs6VTIHT4YZ9f_17irish_mcp_gateway5infra8http_app5testss_35healthz_returns_structured_response0B9_
FN:130,_RNCNvNtNtNtCs6VTIHT4YZ9f_17irish_mcp_gateway5infra8http_app5testss_54deprecated_route_handles_grammar_check_when_configured0B9_
FN:12,_RNCNvNtNtCshBDQ5eqaBi2_17irish_mcp_gateway5infra8http_app12health_check0B7_
FN:50,_RNCNvNtNtCshBDQ5eqaBi2_17irish_mcp_gateway5infra8http_app17build_app_default0B7_
FN:68,_RNCNvNtNtCshBDQ5eqaBi2_17irish_mcp_gateway5infra8http_app29build_app_with_deprecated_api0B7_
FN:12,_RNvNtNtCshBDQ5eqaBi2_17irish_mcp_gateway5infra8http_app12health_check
FN:46,_RNvNtNtCshBDQ5eqaBi2_17irish_mcp_gateway5infra8http_app17build_app_default
FN:64,_RNvNtNtCshBDQ5eqaBi2_17irish_mcp_gateway5infra8http_app29build_app_with_deprecated_api
FNDA:0,_RNCNvNtNtCsfRhWF7WD9Ln_17irish_mcp_gateway5infra8http_app12health_check0B7_
FNDA:0,_RNCNvNtNtCsfRhWF7WD9Ln_17irish_mcp_gateway5infra8http_app17build_app_default0B7_
FNDA:0,_RNCNvNtNtCsfRhWF7WD9Ln_17irish_mcp_gateway5infra8http_app29build_app_with_deprecated_api0B7_
FNDA:0,_RNvNtNtCsfRhWF7WD9Ln_17irish_mcp_gateway5infra8http_app12health_check
FNDA:0,_RNvNtNtCsfRhWF7WD9Ln_17irish_mcp_gateway5infra8http_app17build_app_default
FNDA:0,_RNvNtNtCsfRhWF7WD9Ln_17irish_mcp_gateway5infra8http_app29build_app_with_deprecated_api
FNDA:2,_RNCNvNtNtCskasGANT74SO_17irish_mcp_gateway5infra8http_app12health_check0B7_
FNDA:0,_RNCNvNtNtCskasGANT74SO_17irish_mcp_gateway5infra8http_app17build_app_default0B7_
FNDA:0,_RNCNvNtNtCskasGANT74SO_17irish_mcp_gateway5infra8http_app29build_app_with_deprecated_api0B7_
FNDA:1,_RNvNtNtNtCskasGANT74SO_17irish_mcp_gateway5infra8http_app5testss_34healthz_responds_ok_on_default_app
FNDA:1,_RNvNtNtNtCskasGANT74SO_17irish_mcp_gateway5infra8http_app5testss_35healthz_returns_structured_response
FNDA:1,_RNvNtNtNtCskasGANT74SO_17irish_mcp_gateway5infra8http_app5testss_54deprecated_route_handles_grammar_check_when_configured
FNDA:2,_RNvNtNtCskasGANT74SO_17irish_mcp_gateway5infra8http_app12health_check
FNDA:2,_RNvNtNtCskasGANT74SO_17irish_mcp_gateway5infra8http_app17build_app_default
FNDA:1,_RNvNtNtCskasGANT74SO_17irish_mcp_gateway5infra8http_app29build_app_with_deprecated_api
FNDA:1,_RNCNvNtNtNtCskasGANT74SO_17irish_mcp_gateway5infra8http_app5testss_34healthz_responds_ok_on_default_app0B9_
FNDA:1,_RNCNvNtNtNtCskasGANT74SO_17irish_mcp_gateway5infra8http_app5testss_35healthz_returns_structured_response0B9_
FNDA:1,_RNCNvNtNtNtCskasGANT74SO_17irish_mcp_gateway5infra8http_app5testss_54deprecated_route_handles_grammar_check_when_configured0B9_
FNDA:1,_RNvNtNtNtCs6VTIHT4YZ9f_17irish_mcp_gateway5infra8http_app5testss_34healthz_responds_ok_on_default_app
FNDA:1,_RNvNtNtNtCs6VTIHT4YZ9f_17irish_mcp_gateway5infra8http_app5testss_35healthz_returns_structured_response
FNDA:1,_RNvNtNtNtCs6VTIHT4YZ9f_17irish_mcp_gateway5infra8http_app5testss_54deprecated_route_handles_grammar_check_when_configured
FNDA:2,_RNvNtNtCs6VTIHT4YZ9f_17irish_mcp_gateway5infra8http_app12health_check
FNDA:2,_RNvNtNtCs6VTIHT4YZ9f_17irish_mcp_gateway5infra8http_app17build_app_default
FNDA:1,_RNvNtNtCs6VTIHT4YZ9f_17irish_mcp_gateway5infra8http_app29build_app_with_deprecated_api
FNDA:2,_RNCNvNtNtCs6VTIHT4YZ9f_17irish_mcp_gateway5infra8http_app12health_check0B7_
FNDA:0,_RNCNvNtNtCs6VTIHT4YZ9f_17irish_mcp_gateway5infra8http_app17build_app_default0B7_
FNDA:0,_RNCNvNtNtCs6VTIHT4YZ9f_17irish_mcp_gateway5infra8http_app29build_app_with_deprecated_api0B7_
FNDA:1,_RNCNvNtNtNtCs6VTIHT4YZ9f_17irish_mcp_gateway5infra8http_app5testss_34healthz_responds_ok_on_default_app0B9_
FNDA:1,_RNCNvNtNtNtCs6VTIHT4YZ9f_17irish_mcp_gateway5infra8http_app5testss_35healthz_returns_structured_response0B9_
FNDA:1,_RNCNvNtNtNtCs6VTIHT4YZ9f_17irish_mcp_gateway5infra8http_app5testss_54deprecated_route_handles_grammar_check_when_configured0B9_
FNDA:0,_RNCNvNtNtCshBDQ5eqaBi2_17irish_mcp_gateway5infra8http_app12health_check0B7_
FNDA:0,_RNCNvNtNtCshBDQ5eqaBi2_17irish_mcp_gateway5infra8http_app17build_app_default0B7_
FNDA:0,_RNCNvNtNtCshBDQ5eqaBi2_17irish_mcp_gateway5infra8http_app29build_app_with_deprecated_api0B7_
FNDA:0,_RNvNtNtCshBDQ5eqaBi2_17irish_mcp_gateway5infra8http_app12health_check
FNDA:0,_RNvNtNtCshBDQ5eqaBi2_17irish_mcp_gateway5infra8http_app17build_app_default
FNDA:0,_RNvNtNtCshBDQ5eqaBi2_17irish_mcp_gateway5infra8http_app29build_app_with_deprecated_api
FNF:12
FNH:10
DA:12,4
DA:13,4
DA:14,4
DA:15,4
DA:16,4
DA:17,4
DA:21,4
DA:22,4
DA:23,4
DA:24,4
DA:25,0
DA:26,0
DA:27,0
DA:28,0
DA:29,0
DA:30,0
DA:31,4
DA:32,4
DA:33,4
DA:34,4
DA:35,4
DA:36,4
DA:37,4
DA:39,0
DA:40,0
DA:42,4
DA:43,4
DA:46,4
DA:47,4
DA:48,4
DA:50,4
DA:51,0
DA:52,0
DA:53,0
DA:54,0
DA:55,0
DA:56,4
DA:58,4
DA:59,4
DA:60,4
DA:61,4
DA:64,2
DA:65,2
DA:66,2
DA:68,2
DA:69,0
DA:70,0
DA:71,0
DA:72,0
DA:73,0
DA:74,2
DA:76,2
DA:77,2
DA:78,2
DA:79,2
DA:80,2
DA:81,2
DA:90,2
DA:91,2
DA:92,2
DA:93,2
DA:94,2
DA:95,2
DA:96,2
DA:97,2
DA:98,2
DA:101,2
DA:102,2
DA:104,2
DA:105,2
DA:106,2
DA:107,2
DA:110,2
DA:111,2
DA:112,2
DA:113,2
DA:114,2
DA:115,2
DA:116,2
DA:117,2
DA:119,2
DA:120,2
DA:123,2
DA:124,2
DA:125,2
DA:126,2
DA:127,2
DA:130,2
DA:132,2
DA:133,2
DA:134,2
DA:136,2
DA:137,2
DA:138,2
DA:139,2
DA:140,2
DA:141,2
DA:142,2
DA:143,2
DA:144,2
DA:145,2
BRF:0
BRH:0
LF:110
LH:90
end_of_record
SF:/Users/amacgafraidh/Desktop/irish-mcp-gateway/src/infra/logging.rs
FN:1,_RNvNtNtCsfRhWF7WD9Ln_17irish_mcp_gateway5infra7logging4init
FN:4,_RNCNvNtNtCsfRhWF7WD9Ln_17irish_mcp_gateway5infra7logging4init0B7_
FN:1,_RNvNtNtCskasGANT74SO_17irish_mcp_gateway5infra7logging4init
FN:14,_RNvNtNtNtCskasGANT74SO_17irish_mcp_gateway5infra7logging5testss_18init_is_idempotent
FN:4,_RNCNvNtNtCskasGANT74SO_17irish_mcp_gateway5infra7logging4init0B7_
FN:14,_RNvNtNtNtCs6VTIHT4YZ9f_17irish_mcp_gateway5infra7logging5testss_18init_is_idempotent
FN:1,_RNvNtNtCs6VTIHT4YZ9f_17irish_mcp_gateway5infra7logging4init
FN:4,_RNCNvNtNtCs6VTIHT4YZ9f_17irish_mcp_gateway5infra7logging4init0B7_
FN:1,_RNvNtNtCshBDQ5eqaBi2_17irish_mcp_gateway5infra7logging4init
FN:4,_RNCNvNtNtCshBDQ5eqaBi2_17irish_mcp_gateway5infra7logging4init0B7_
FNDA:0,_RNvNtNtCsfRhWF7WD9Ln_17irish_mcp_gateway5infra7logging4init
FNDA:0,_RNCNvNtNtCsfRhWF7WD9Ln_17irish_mcp_gateway5infra7logging4init0B7_
FNDA:2,_RNvNtNtCskasGANT74SO_17irish_mcp_gateway5infra7logging4init
FNDA:1,_RNvNtNtNtCskasGANT74SO_17irish_mcp_gateway5infra7logging5testss_18init_is_idempotent
FNDA:2,_RNCNvNtNtCskasGANT74SO_17irish_mcp_gateway5infra7logging4init0B7_
FNDA:1,_RNvNtNtNtCs6VTIHT4YZ9f_17irish_mcp_gateway5infra7logging5testss_18init_is_idempotent
FNDA:2,_RNvNtNtCs6VTIHT4YZ9f_17irish_mcp_gateway5infra7logging4init
FNDA:2,_RNCNvNtNtCs6VTIHT4YZ9f_17irish_mcp_gateway5infra7logging4init0B7_
FNDA:0,_RNvNtNtCshBDQ5eqaBi2_17irish_mcp_gateway5infra7logging4init
FNDA:0,_RNCNvNtNtCshBDQ5eqaBi2_17irish_mcp_gateway5infra7logging4init0B7_
FNF:3
FNH:3
DA:1,4
DA:4,4
DA:5,4
DA:6,4
DA:7,4
DA:8,4
DA:9,4
DA:14,2
DA:15,2
DA:16,2
DA:17,2
DA:18,2
BRF:0
BRH:0
LF:13
LH:13
end_of_record
SF:/Users/amacgafraidh/Desktop/irish-mcp-gateway/src/infra/runtime/limits.rs
FN:4,_RNvNtNtNtCsfRhWF7WD9Ln_17irish_mcp_gateway5infra7runtime6limits16make_http_client
FN:13,_RINvNtNtNtCsfRhWF7WD9Ln_17irish_mcp_gateway5infra7runtime6limits11retry_asyncINtNtCs3LPPTODPrjR_5alloc3vec3VecNtNtNtB8_7clients9gramadoir9IssueWireENtNtB1i_6string6StringNCNCNCNvMB1M_NtB1M_15GramadoirRemote7analyze000NCB2M_0EB8_
FN:17,_RNCINvNtNtNtCsfRhWF7WD9Ln_17irish_mcp_gateway5infra7runtime6limits11retry_asyncINtNtCs3LPPTODPrjR_5alloc3vec3VecNtNtNtBa_7clients9gramadoir9IssueWireENtNtB1k_6string6StringNCNCNCNvMB1O_NtB1O_15GramadoirRemote7analyze000NCB2O_0E0Ba_
FN:4,_RNvNtNtNtCskasGANT74SO_17irish_mcp_gateway5infra7runtime6limits16make_http_client
FN:13,_RINvNtNtNtCskasGANT74SO_17irish_mcp_gateway5infra7runtime6limits11retry_asyncINtNtCs3LPPTODPrjR_5alloc3vec3VecNtNtNtB8_7clients9gramadoir9IssueWireENtNtB1i_6string6StringNCNCNCNvMB1M_NtB1M_15GramadoirRemote7analyze000NCB2M_0EB8_
FN:13,_RINvNtNtNtCskasGANT74SO_17irish_mcp_gateway5infra7runtime6limits11retry_asyncllNCNCNCNvNtB2_5testss_24it_retries_then_succeeds000NCB1j_0EB8_
FN:17,_RNCINvNtNtNtCskasGANT74SO_17irish_mcp_gateway5infra7runtime6limits11retry_asyncINtNtCs3LPPTODPrjR_5alloc3vec3VecNtNtNtBa_7clients9gramadoir9IssueWireENtNtB1k_6string6StringNCNCNCNvMB1O_NtB1O_15GramadoirRemote7analyze000NCB2O_0E0Ba_
FN:17,_RNCINvNtNtNtCskasGANT74SO_17irish_mcp_gateway5infra7runtime6limits11retry_asyncllNCNCNCNvNtB4_5testss_24it_retries_then_succeeds000NCB1l_0E0Ba_
FN:39,_RNvNtNtNtNtCskasGANT74SO_17irish_mcp_gateway5infra7runtime6limits5testss_24it_retries_then_succeeds
FN:45,_RNCNCNCNvNtNtNtNtCskasGANT74SO_17irish_mcp_gateway5infra7runtime6limits5testss_24it_retries_then_succeeds000Bf_
FN:42,_RNCNCNvNtNtNtNtCskasGANT74SO_17irish_mcp_gateway5infra7runtime6limits5testss_24it_retries_then_succeeds00Bd_
FN:39,_RNCNvNtNtNtNtCskasGANT74SO_17irish_mcp_gateway5infra7runtime6limits5testss_24it_retries_then_succeeds0Bb_
FN:39,_RNvNtNtNtNtCs6VTIHT4YZ9f_17irish_mcp_gateway5infra7runtime6limits5testss_24it_retries_then_succeeds
FN:13,_RINvNtNtNtCs6VTIHT4YZ9f_17irish_mcp_gateway5infra7runtime6limits11retry_asyncINtNtCs3LPPTODPrjR_5alloc3vec3VecNtNtNtB8_7clients9gramadoir9IssueWireENtNtB1i_6string6StringNCNCNCNvMB1M_NtB1M_15GramadoirRemote7analyze000NCB2M_0EB8_
FN:13,_RINvNtNtNtCs6VTIHT4YZ9f_17irish_mcp_gateway5infra7runtime6limits11retry_asyncllNCNCNCNvNtB2_5testss_24it_retries_then_succeeds000NCB1j_0EB8_
FN:17,_RNCINvNtNtNtCs6VTIHT4YZ9f_17irish_mcp_gateway5infra7runtime6limits11retry_asyncINtNtCs3LPPTODPrjR_5alloc3vec3VecNtNtNtBa_7clients9gramadoir9IssueWireENtNtB1k_6string6StringNCNCNCNvMB1O_NtB1O_15GramadoirRemote7analyze000NCB2O_0E0Ba_
FN:17,_RNCINvNtNtNtCs6VTIHT4YZ9f_17irish_mcp_gateway5infra7runtime6limits11retry_asyncllNCNCNCNvNtB4_5testss_24it_retries_then_succeeds000NCB1l_0E0Ba_
FN:45,_RNCNCNCNvNtNtNtNtCs6VTIHT4YZ9f_17irish_mcp_gateway5infra7runtime6limits5testss_24it_retries_then_succeeds000Bf_
FN:42,_RNCNCNvNtNtNtNtCs6VTIHT4YZ9f_17irish_mcp_gateway5infra7runtime6limits5testss_24it_retries_then_succeeds00Bd_
FN:39,_RNCNvNtNtNtNtCs6VTIHT4YZ9f_17irish_mcp_gateway5infra7runtime6limits5testss_24it_retries_then_succeeds0Bb_
FN:4,_RNvNtNtNtCs6VTIHT4YZ9f_17irish_mcp_gateway5infra7runtime6limits16make_http_client
FN:4,_RNvNtNtNtCshBDQ5eqaBi2_17irish_mcp_gateway5infra7runtime6limits16make_http_client
FN:13,_RINvNtNtNtCshBDQ5eqaBi2_17irish_mcp_gateway5infra7runtime6limits11retry_asyncINtNtCs3LPPTODPrjR_5alloc3vec3VecNtNtNtB8_7clients9gramadoir9IssueWireENtNtB1i_6string6StringNCNCNCNvMB1M_NtB1M_15GramadoirRemote7analyze000NCB2M_0EB8_
FN:17,_RNCINvNtNtNtCshBDQ5eqaBi2_17irish_mcp_gateway5infra7runtime6limits11retry_asyncINtNtCs3LPPTODPrjR_5alloc3vec3VecNtNtNtBa_7clients9gramadoir9IssueWireENtNtB1k_6string6StringNCNCNCNvMB1O_NtB1O_15GramadoirRemote7analyze000NCB2O_0E0Ba_
FNDA:0,_RNvNtNtNtCsfRhWF7WD9Ln_17irish_mcp_gateway5infra7runtime6limits16make_http_client
FNDA:0,_RINvNtNtNtCsfRhWF7WD9Ln_17irish_mcp_gateway5infra7runtime6limits11retry_asyncINtNtCs3LPPTODPrjR_5alloc3vec3VecNtNtNtB8_7clients9gramadoir9IssueWireENtNtB1i_6string6StringNCNCNCNvMB1M_NtB1M_15GramadoirRemote7analyze000NCB2M_0EB8_
FNDA:0,_RNCINvNtNtNtCsfRhWF7WD9Ln_17irish_mcp_gateway5infra7runtime6limits11retry_asyncINtNtCs3LPPTODPrjR_5alloc3vec3VecNtNtNtBa_7clients9gramadoir9IssueWireENtNtB1k_6string6StringNCNCNCNvMB1O_NtB1O_15GramadoirRemote7analyze000NCB2O_0E0Ba_
FNDA:13,_RNvNtNtNtCskasGANT74SO_17irish_mcp_gateway5infra7runtime6limits16make_http_client
FNDA:6,_RINvNtNtNtCskasGANT74SO_17irish_mcp_gateway5infra7runtime6limits11retry_asyncINtNtCs3LPPTODPrjR_5alloc3vec3VecNtNtNtB8_7clients9gramadoir9IssueWireENtNtB1i_6string6StringNCNCNCNvMB1M_NtB1M_15GramadoirRemote7analyze000NCB2M_0EB8_
FNDA:1,_RINvNtNtNtCskasGANT74SO_17irish_mcp_gateway5infra7runtime6limits11retry_asyncllNCNCNCNvNtB2_5testss_24it_retries_then_succeeds000NCB1j_0EB8_
FNDA:6,_RNCINvNtNtNtCskasGANT74SO_17irish_mcp_gateway5infra7runtime6limits11retry_asyncINtNtCs3LPPTODPrjR_5alloc3vec3VecNtNtNtBa_7clients9gramadoir9IssueWireENtNtB1k_6string6StringNCNCNCNvMB1O_NtB1O_15GramadoirRemote7analyze000NCB2O_0E0Ba_
FNDA:1,_RNCINvNtNtNtCskasGANT74SO_17irish_mcp_gateway5infra7runtime6limits11retry_asyncllNCNCNCNvNtB4_5testss_24it_retries_then_succeeds000NCB1l_0E0Ba_
FNDA:1,_RNvNtNtNtNtCskasGANT74SO_17irish_mcp_gateway5infra7runtime6limits5testss_24it_retries_then_succeeds
FNDA:3,_RNCNCNCNvNtNtNtNtCskasGANT74SO_17irish_mcp_gateway5infra7runtime6limits5testss_24it_retries_then_succeeds000Bf_
FNDA:3,_RNCNCNvNtNtNtNtCskasGANT74SO_17irish_mcp_gateway5infra7runtime6limits5testss_24it_retries_then_succeeds00Bd_
FNDA:1,_RNCNvNtNtNtNtCskasGANT74SO_17irish_mcp_gateway5infra7runtime6limits5testss_24it_retries_then_succeeds0Bb_
FNDA:1,_RNvNtNtNtNtCs6VTIHT4YZ9f_17irish_mcp_gateway5infra7runtime6limits5testss_24it_retries_then_succeeds
FNDA:5,_RINvNtNtNtCs6VTIHT4YZ9f_17irish_mcp_gateway5infra7runtime6limits11retry_asyncINtNtCs3LPPTODPrjR_5alloc3vec3VecNtNtNtB8_7clients9gramadoir9IssueWireENtNtB1i_6string6StringNCNCNCNvMB1M_NtB1M_15GramadoirRemote7analyze000NCB2M_0EB8_
FNDA:1,_RINvNtNtNtCs6VTIHT4YZ9f_17irish_mcp_gateway5infra7runtime6limits11retry_asyncllNCNCNCNvNtB2_5testss_24it_retries_then_succeeds000NCB1j_0EB8_
FNDA:5,_RNCINvNtNtNtCs6VTIHT4YZ9f_17irish_mcp_gateway5infra7runtime6limits11retry_asyncINtNtCs3LPPTODPrjR_5alloc3vec3VecNtNtNtBa_7clients9gramadoir9IssueWireENtNtB1k_6string6StringNCNCNCNvMB1O_NtB1O_15GramadoirRemote7analyze000NCB2O_0E0Ba_
FNDA:1,_RNCINvNtNtNtCs6VTIHT4YZ9f_17irish_mcp_gateway5infra7runtime6limits11retry_asyncllNCNCNCNvNtB4_5testss_24it_retries_then_succeeds000NCB1l_0E0Ba_
FNDA:3,_RNCNCNCNvNtNtNtNtCs6VTIHT4YZ9f_17irish_mcp_gateway5infra7runtime6limits5testss_24it_retries_then_succeeds000Bf_
FNDA:3,_RNCNCNvNtNtNtNtCs6VTIHT4YZ9f_17irish_mcp_gateway5infra7runtime6limits5testss_24it_retries_then_succeeds00Bd_
FNDA:1,_RNCNvNtNtNtNtCs6VTIHT4YZ9f_17irish_mcp_gateway5infra7runtime6limits5testss_24it_retries_then_succeeds0Bb_
FNDA:12,_RNvNtNtNtCs6VTIHT4YZ9f_17irish_mcp_gateway5infra7runtime6limits16make_http_client
FNDA:1,_RNvNtNtNtCshBDQ5eqaBi2_17irish_mcp_gateway5infra7runtime6limits16make_http_client
FNDA:1,_RINvNtNtNtCshBDQ5eqaBi2_17irish_mcp_gateway5infra7runtime6limits11retry_asyncINtNtCs3LPPTODPrjR_5alloc3vec3VecNtNtNtB8_7clients9gramadoir9IssueWireENtNtB1i_6string6StringNCNCNCNvMB1M_NtB1M_15GramadoirRemote7analyze000NCB2M_0EB8_
FNDA:1,_RNCINvNtNtNtCshBDQ5eqaBi2_17irish_mcp_gateway5infra7runtime6limits11retry_asyncINtNtCs3LPPTODPrjR_5alloc3vec3VecNtNtNtBa_7clients9gramadoir9IssueWireENtNtB1k_6string6StringNCNCNCNvMB1O_NtB1O_15GramadoirRemote7analyze000NCB2O_0E0Ba_
FNF:7
FNH:7
DA:4,26
DA:5,26
DA:6,26
DA:7,26
DA:8,26
DA:9,26
DA:10,26
DA:13,14
DA:14,14
DA:15,14
DA:16,14
DA:17,14
DA:18,14
DA:19,14
DA:21,32
DA:22,7
DA:23,25
DA:24,25
DA:25,7
DA:26,18
DA:27,18
DA:28,18
DA:29,18
DA:30,18
DA:34,14
DA:39,2
DA:41,2
DA:42,6
DA:43,6
DA:44,6
DA:45,6
DA:46,6
DA:47,6
DA:48,6
DA:49,2
DA:50,2
BRF:0
BRH:0
LF:40
LH:40
end_of_record
SF:/Users/amacgafraidh/Desktop/irish-mcp-gateway/src/infra/runtime/mcp_transport.rs
FN:13,_RINvNtNtNtCsfRhWF7WD9Ln_17irish_mcp_gateway5infra7runtime13mcp_transport11serve_stdioINtNtNtNtB8_5tools7grammar11tool_router10GrammarSvcNtNtNtB8_7clients9gramadoir15GramadoirRemoteENCNCNvB8_4main00EB8_
FN:27,_RINvNtNtNtCsfRhWF7WD9Ln_17irish_mcp_gateway5infra7runtime13mcp_transport28make_streamable_http_serviceINtNtNtNtB8_5tools7grammar11tool_router10GrammarSvcNtNtNtB8_7clients9gramadoir15GramadoirRemoteENCNvNtB6_8http_app17build_app_default0EB8_
FN:27,_RINvNtNtNtCsfRhWF7WD9Ln_17irish_mcp_gateway5infra7runtime13mcp_transport28make_streamable_http_serviceINtNtNtNtB8_5tools7grammar11tool_router10GrammarSvcNtNtNtB8_7clients9gramadoir15GramadoirRemoteENCNvNtB6_8http_app29build_app_with_deprecated_api0EB8_
FN:18,_RNCINvNtNtNtCsfRhWF7WD9Ln_17irish_mcp_gateway5infra7runtime13mcp_transport11serve_stdioINtNtNtNtBa_5tools7grammar11tool_router10GrammarSvcNtNtNtBa_7clients9gramadoir15GramadoirRemoteENCNCNvBa_4main00E0Ba_
FN:35,_RNCINvNtNtNtCsfRhWF7WD9Ln_17irish_mcp_gateway5infra7runtime13mcp_transport28make_streamable_http_serviceINtNtNtNtBa_5tools7grammar11tool_router10GrammarSvcNtNtNtBa_7clients9gramadoir15GramadoirRemoteENCNvNtB8_8http_app17build_app_default0E0Ba_
FN:35,_RNCINvNtNtNtCsfRhWF7WD9Ln_17irish_mcp_gateway5infra7runtime13mcp_transport28make_streamable_http_serviceINtNtNtNtBa_5tools7grammar11tool_router10GrammarSvcNtNtNtBa_7clients9gramadoir15GramadoirRemoteENCNvNtB8_8http_app29build_app_with_deprecated_api0E0Ba_
FN:13,_RINvNtNtNtCskasGANT74SO_17irish_mcp_gateway5infra7runtime13mcp_transport11serve_stdioppEB8_
FN:18,_RNCINvNtNtNtCskasGANT74SO_17irish_mcp_gateway5infra7runtime13mcp_transport11serve_stdioppE0Ba_
FN:81,_RNvNtNtNtNtCskasGANT74SO_17irish_mcp_gateway5infra7runtime13mcp_transport5testss_31test_serve_stdio_factory_called
FN:51,_RNvNtNtNtNtCskasGANT74SO_17irish_mcp_gateway5infra7runtime13mcp_transport5testss_33test_make_streamable_http_service
FN:66,_RNvNtNtNtNtCskasGANT74SO_17irish_mcp_gateway5infra7runtime13mcp_transport5testss_56test_make_streamable_http_service_with_different_factory
FN:53,_RNCNCNvNtNtNtNtCskasGANT74SO_17irish_mcp_gateway5infra7runtime13mcp_transport5testss_33test_make_streamable_http_service00Bd_
FN:68,_RNCNCNvNtNtNtNtCskasGANT74SO_17irish_mcp_gateway5infra7runtime13mcp_transport5testss_56test_make_streamable_http_service_with_different_factory00Bd_
FN:82,_RNCNvNtNtNtNtCskasGANT74SO_17irish_mcp_gateway5infra7runtime13mcp_transport5testss_31test_serve_stdio_factory_called0Bb_
FN:51,_RNCNvNtNtNtNtCskasGANT74SO_17irish_mcp_gateway5infra7runtime13mcp_transport5testss_33test_make_streamable_http_service0Bb_
FN:66,_RNCNvNtNtNtNtCskasGANT74SO_17irish_mcp_gateway5infra7runtime13mcp_transport5testss_56test_make_streamable_http_service_with_different_factory0Bb_
FN:27,_RINvNtNtNtCskasGANT74SO_17irish_mcp_gateway5infra7runtime13mcp_transport28make_streamable_http_serviceINtNtNtNtB8_5tools7grammar11tool_router10GrammarSvcNtNtNtB8_7clients9gramadoir15GramadoirRemoteENCNCNvNtB2_5testss_33test_make_streamable_http_service00EB8_
FN:27,_RINvNtNtNtCskasGANT74SO_17irish_mcp_gateway5infra7runtime13mcp_transport28make_streamable_http_serviceINtNtNtNtB8_5tools7grammar11tool_router10GrammarSvcNtNtNtB8_7clients9gramadoir15GramadoirRemoteENCNCNvNtB2_5testss_56test_make_streamable_http_service_with_different_factory00EB8_
FN:27,_RINvNtNtNtCskasGANT74SO_17irish_mcp_gateway5infra7runtime13mcp_transport28make_streamable_http_serviceINtNtNtNtB8_5tools7grammar11tool_router10GrammarSvcNtNtNtB8_7clients9gramadoir15GramadoirRemoteENCNvNtB6_8http_app17build_app_default0EB8_
FN:27,_RINvNtNtNtCskasGANT74SO_17irish_mcp_gateway5infra7runtime13mcp_transport28make_streamable_http_serviceINtNtNtNtB8_5tools7grammar11tool_router10GrammarSvcNtNtNtB8_7clients9gramadoir15GramadoirRemoteENCNvNtB6_8http_app29build_app_with_deprecated_api0EB8_
FN:35,_RNCINvNtNtNtCskasGANT74SO_17irish_mcp_gateway5infra7runtime13mcp_transport28make_streamable_http_serviceINtNtNtNtBa_5tools7grammar11tool_router10GrammarSvcNtNtNtBa_7clients9gramadoir15GramadoirRemoteENCNCNvNtB4_5testss_33test_make_streamable_http_service00E0Ba_
FN:35,_RNCINvNtNtNtCskasGANT74SO_17irish_mcp_gateway5infra7runtime13mcp_transport28make_streamable_http_serviceINtNtNtNtBa_5tools7grammar11tool_router10GrammarSvcNtNtNtBa_7clients9gramadoir15GramadoirRemoteENCNCNvNtB4_5testss_56test_make_streamable_http_service_with_different_factory00E0Ba_
FN:35,_RNCINvNtNtNtCskasGANT74SO_17irish_mcp_gateway5infra7runtime13mcp_transport28make_streamable_http_serviceINtNtNtNtBa_5tools7grammar11tool_router10GrammarSvcNtNtNtBa_7clients9gramadoir15GramadoirRemoteENCNvNtB8_8http_app17build_app_default0E0Ba_
FN:35,_RNCINvNtNtNtCskasGANT74SO_17irish_mcp_gateway5infra7runtime13mcp_transport28make_streamable_http_serviceINtNtNtNtBa_5tools7grammar11tool_router10GrammarSvcNtNtNtBa_7clients9gramadoir15GramadoirRemoteENCNvNtB8_8http_app29build_app_with_deprecated_api0E0Ba_
FN:13,_RINvNtNtNtCs6VTIHT4YZ9f_17irish_mcp_gateway5infra7runtime13mcp_transport11serve_stdioppEB8_
FN:18,_RNCINvNtNtNtCs6VTIHT4YZ9f_17irish_mcp_gateway5infra7runtime13mcp_transport11serve_stdioppE0Ba_
FN:27,_RINvNtNtNtCs6VTIHT4YZ9f_17irish_mcp_gateway5infra7runtime13mcp_transport28make_streamable_http_serviceINtNtNtNtB8_5tools7grammar11tool_router10GrammarSvcNtNtNtB8_7clients9gramadoir15GramadoirRemoteENCNCNvNtB2_5testss_33test_make_streamable_http_service00EB8_
FN:27,_RINvNtNtNtCs6VTIHT4YZ9f_17irish_mcp_gateway5infra7runtime13mcp_transport28make_streamable_http_serviceINtNtNtNtB8_5tools7grammar11tool_router10GrammarSvcNtNtNtB8_7clients9gramadoir15GramadoirRemoteENCNCNvNtB2_5testss_56test_make_streamable_http_service_with_different_factory00EB8_
FN:27,_RINvNtNtNtCs6VTIHT4YZ9f_17irish_mcp_gateway5infra7runtime13mcp_transport28make_streamable_http_serviceINtNtNtNtB8_5tools7grammar11tool_router10GrammarSvcNtNtNtB8_7clients9gramadoir15GramadoirRemoteENCNvNtB6_8http_app17build_app_default0EB8_
FN:27,_RINvNtNtNtCs6VTIHT4YZ9f_17irish_mcp_gateway5infra7runtime13mcp_transport28make_streamable_http_serviceINtNtNtNtB8_5tools7grammar11tool_router10GrammarSvcNtNtNtB8_7clients9gramadoir15GramadoirRemoteENCNvNtB6_8http_app29build_app_with_deprecated_api0EB8_
FN:35,_RNCINvNtNtNtCs6VTIHT4YZ9f_17irish_mcp_gateway5infra7runtime13mcp_transport28make_streamable_http_serviceINtNtNtNtBa_5tools7grammar11tool_router10GrammarSvcNtNtNtBa_7clients9gramadoir15GramadoirRemoteENCNCNvNtB4_5testss_33test_make_streamable_http_service00E0Ba_
FN:35,_RNCINvNtNtNtCs6VTIHT4YZ9f_17irish_mcp_gateway5infra7runtime13mcp_transport28make_streamable_http_serviceINtNtNtNtBa_5tools7grammar11tool_router10GrammarSvcNtNtNtBa_7clients9gramadoir15GramadoirRemoteENCNCNvNtB4_5testss_56test_make_streamable_http_service_with_different_factory00E0Ba_
FN:35,_RNCINvNtNtNtCs6VTIHT4YZ9f_17irish_mcp_gateway5infra7runtime13mcp_transport28make_streamable_http_serviceINtNtNtNtBa_5tools7grammar11tool_router10GrammarSvcNtNtNtBa_7clients9gramadoir15GramadoirRemoteENCNvNtB8_8http_app17build_app_default0E0Ba_
FN:35,_RNCINvNtNtNtCs6VTIHT4YZ9f_17irish_mcp_gateway5infra7runtime13mcp_transport28make_streamable_http_serviceINtNtNtNtBa_5tools7grammar11tool_router10GrammarSvcNtNtNtBa_7clients9gramadoir15GramadoirRemoteENCNvNtB8_8http_app29build_app_with_deprecated_api0E0Ba_
FN:53,_RNCNCNvNtNtNtNtCs6VTIHT4YZ9f_17irish_mcp_gateway5infra7runtime13mcp_transport5testss_33test_make_streamable_http_service00Bd_
FN:68,_RNCNCNvNtNtNtNtCs6VTIHT4YZ9f_17irish_mcp_gateway5infra7runtime13mcp_transport5testss_56test_make_streamable_http_service_with_different_factory00Bd_
FN:82,_RNCNvNtNtNtNtCs6VTIHT4YZ9f_17irish_mcp_gateway5infra7runtime13mcp_transport5testss_31test_serve_stdio_factory_called0Bb_
FN:51,_RNCNvNtNtNtNtCs6VTIHT4YZ9f_17irish_mcp_gateway5infra7runtime13mcp_transport5testss_33test_make_streamable_http_service0Bb_
FN:66,_RNCNvNtNtNtNtCs6VTIHT4YZ9f_17irish_mcp_gateway5infra7runtime13mcp_transport5testss_56test_make_streamable_http_service_with_different_factory0Bb_
FN:81,_RNvNtNtNtNtCs6VTIHT4YZ9f_17irish_mcp_gateway5infra7runtime13mcp_transport5testss_31test_serve_stdio_factory_called
FN:51,_RNvNtNtNtNtCs6VTIHT4YZ9f_17irish_mcp_gateway5infra7runtime13mcp_transport5testss_33test_make_streamable_http_service
FN:66,_RNvNtNtNtNtCs6VTIHT4YZ9f_17irish_mcp_gateway5infra7runtime13mcp_transport5testss_56test_make_streamable_http_service_with_different_factory
FN:13,_RINvNtNtNtCshBDQ5eqaBi2_17irish_mcp_gateway5infra7runtime13mcp_transport11serve_stdioppEB8_
FN:18,_RNCINvNtNtNtCshBDQ5eqaBi2_17irish_mcp_gateway5infra7runtime13mcp_transport11serve_stdioppE0Ba_
FN:27,_RINvNtNtNtCshBDQ5eqaBi2_17irish_mcp_gateway5infra7runtime13mcp_transport28make_streamable_http_serviceINtNtNtNtB8_5tools7grammar11tool_router10GrammarSvcNtNtNtB8_7clients9gramadoir15GramadoirRemoteENCNvNtB6_8http_app17build_app_default0EB8_
FN:27,_RINvNtNtNtCshBDQ5eqaBi2_17irish_mcp_gateway5infra7runtime13mcp_transport28make_streamable_http_serviceINtNtNtNtB8_5tools7grammar11tool_router10GrammarSvcNtNtNtB8_7clients9gramadoir15GramadoirRemoteENCNvNtB6_8http_app29build_app_with_deprecated_api0EB8_
FN:35,_RNCINvNtNtNtCshBDQ5eqaBi2_17irish_mcp_gateway5infra7runtime13mcp_transport28make_streamable_http_serviceINtNtNtNtBa_5tools7grammar11tool_router10GrammarSvcNtNtNtBa_7clients9gramadoir15GramadoirRemoteENCNvNtB8_8http_app17build_app_default0E0Ba_
FN:35,_RNCINvNtNtNtCshBDQ5eqaBi2_17irish_mcp_gateway5infra7runtime13mcp_transport28make_streamable_http_serviceINtNtNtNtBa_5tools7grammar11tool_router10GrammarSvcNtNtNtBa_7clients9gramadoir15GramadoirRemoteENCNvNtB8_8http_app29build_app_with_deprecated_api0E0Ba_
FN:27,_RINvNtNtNtCshBDQ5eqaBi2_17irish_mcp_gateway5infra7runtime13mcp_transport28make_streamable_http_serviceINtNtNtNtB8_5tools7grammar11tool_router10GrammarSvcNtNtNtB8_7clients9gramadoir15GramadoirRemoteENCNCNvCs3g5ENcdNk3P_25test_mcp_http_integrations_64v2_initialize_list_and_call_using_pure_transport_and_tool_router0s_0EB3g_
FN:35,_RNCINvNtNtNtCshBDQ5eqaBi2_17irish_mcp_gateway5infra7runtime13mcp_transport28make_streamable_http_serviceINtNtNtNtBa_5tools7grammar11tool_router10GrammarSvcNtNtNtBa_7clients9gramadoir15GramadoirRemoteENCNCNvCs3g5ENcdNk3P_25test_mcp_http_integrations_64v2_initialize_list_and_call_using_pure_transport_and_tool_router0s_0E0B3i_
FNDA:0,_RINvNtNtNtCsfRhWF7WD9Ln_17irish_mcp_gateway5infra7runtime13mcp_transport11serve_stdioINtNtNtNtB8_5tools7grammar11tool_router10GrammarSvcNtNtNtB8_7clients9gramadoir15GramadoirRemoteENCNCNvB8_4main00EB8_
FNDA:0,_RINvNtNtNtCsfRhWF7WD9Ln_17irish_mcp_gateway5infra7runtime13mcp_transport28make_streamable_http_serviceINtNtNtNtB8_5tools7grammar11tool_router10GrammarSvcNtNtNtB8_7clients9gramadoir15GramadoirRemoteENCNvNtB6_8http_app17build_app_default0EB8_
FNDA:0,_RINvNtNtNtCsfRhWF7WD9Ln_17irish_mcp_gateway5infra7runtime13mcp_transport28make_streamable_http_serviceINtNtNtNtB8_5tools7grammar11tool_router10GrammarSvcNtNtNtB8_7clients9gramadoir15GramadoirRemoteENCNvNtB6_8http_app29build_app_with_deprecated_api0EB8_
FNDA:0,_RNCINvNtNtNtCsfRhWF7WD9Ln_17irish_mcp_gateway5infra7runtime13mcp_transport11serve_stdioINtNtNtNtBa_5tools7grammar11tool_router10GrammarSvcNtNtNtBa_7clients9gramadoir15GramadoirRemoteENCNCNvBa_4main00E0Ba_
FNDA:0,_RNCINvNtNtNtCsfRhWF7WD9Ln_17irish_mcp_gateway5infra7runtime13mcp_transport28make_streamable_http_serviceINtNtNtNtBa_5tools7grammar11tool_router10GrammarSvcNtNtNtBa_7clients9gramadoir15GramadoirRemoteENCNvNtB8_8http_app17build_app_default0E0Ba_
FNDA:0,_RNCINvNtNtNtCsfRhWF7WD9Ln_17irish_mcp_gateway5infra7runtime13mcp_transport28make_streamable_http_serviceINtNtNtNtBa_5tools7grammar11tool_router10GrammarSvcNtNtNtBa_7clients9gramadoir15GramadoirRemoteENCNvNtB8_8http_app29build_app_with_deprecated_api0E0Ba_
FNDA:0,_RINvNtNtNtCskasGANT74SO_17irish_mcp_gateway5infra7runtime13mcp_transport11serve_stdioppEB8_
FNDA:0,_RNCINvNtNtNtCskasGANT74SO_17irish_mcp_gateway5infra7runtime13mcp_transport11serve_stdioppE0Ba_
FNDA:1,_RNvNtNtNtNtCskasGANT74SO_17irish_mcp_gateway5infra7runtime13mcp_transport5testss_31test_serve_stdio_factory_called
FNDA:1,_RNvNtNtNtNtCskasGANT74SO_17irish_mcp_gateway5infra7runtime13mcp_transport5testss_33test_make_streamable_http_service
FNDA:1,_RNvNtNtNtNtCskasGANT74SO_17irish_mcp_gateway5infra7runtime13mcp_transport5testss_56test_make_streamable_http_service_with_different_factory
FNDA:0,_RNCNCNvNtNtNtNtCskasGANT74SO_17irish_mcp_gateway5infra7runtime13mcp_transport5testss_33test_make_streamable_http_service00Bd_
FNDA:0,_RNCNCNvNtNtNtNtCskasGANT74SO_17irish_mcp_gateway5infra7runtime13mcp_transport5testss_56test_make_streamable_http_service_with_different_factory00Bd_
FNDA:1,_RNCNvNtNtNtNtCskasGANT74SO_17irish_mcp_gateway5infra7runtime13mcp_transport5testss_31test_serve_stdio_factory_called0Bb_
FNDA:1,_RNCNvNtNtNtNtCskasGANT74SO_17irish_mcp_gateway5infra7runtime13mcp_transport5testss_33test_make_streamable_http_service0Bb_
FNDA:1,_RNCNvNtNtNtNtCskasGANT74SO_17irish_mcp_gateway5infra7runtime13mcp_transport5testss_56test_make_streamable_http_service_with_different_factory0Bb_
FNDA:1,_RINvNtNtNtCskasGANT74SO_17irish_mcp_gateway5infra7runtime13mcp_transport28make_streamable_http_serviceINtNtNtNtB8_5tools7grammar11tool_router10GrammarSvcNtNtNtB8_7clients9gramadoir15GramadoirRemoteENCNCNvNtB2_5testss_33test_make_streamable_http_service00EB8_
FNDA:1,_RINvNtNtNtCskasGANT74SO_17irish_mcp_gateway5infra7runtime13mcp_transport28make_streamable_http_serviceINtNtNtNtB8_5tools7grammar11tool_router10GrammarSvcNtNtNtB8_7clients9gramadoir15GramadoirRemoteENCNCNvNtB2_5testss_56test_make_streamable_http_service_with_different_factory00EB8_
FNDA:2,_RINvNtNtNtCskasGANT74SO_17irish_mcp_gateway5infra7runtime13mcp_transport28make_streamable_http_serviceINtNtNtNtB8_5tools7grammar11tool_router10GrammarSvcNtNtNtB8_7clients9gramadoir15GramadoirRemoteENCNvNtB6_8http_app17build_app_default0EB8_
FNDA:1,_RINvNtNtNtCskasGANT74SO_17irish_mcp_gateway5infra7runtime13mcp_transport28make_streamable_http_serviceINtNtNtNtB8_5tools7grammar11tool_router10GrammarSvcNtNtNtB8_7clients9gramadoir15GramadoirRemoteENCNvNtB6_8http_app29build_app_with_deprecated_api0EB8_
FNDA:0,_RNCINvNtNtNtCskasGANT74SO_17irish_mcp_gateway5infra7runtime13mcp_transport28make_streamable_http_serviceINtNtNtNtBa_5tools7grammar11tool_router10GrammarSvcNtNtNtBa_7clients9gramadoir15GramadoirRemoteENCNCNvNtB4_5testss_33test_make_streamable_http_service00E0Ba_
FNDA:0,_RNCINvNtNtNtCskasGANT74SO_17irish_mcp_gateway5infra7runtime13mcp_transport28make_streamable_http_serviceINtNtNtNtBa_5tools7grammar11tool_router10GrammarSvcNtNtNtBa_7clients9gramadoir15GramadoirRemoteENCNCNvNtB4_5testss_56test_make_streamable_http_service_with_different_factory00E0Ba_
FNDA:0,_RNCINvNtNtNtCskasGANT74SO_17irish_mcp_gateway5infra7runtime13mcp_transport28make_streamable_http_serviceINtNtNtNtBa_5tools7grammar11tool_router10GrammarSvcNtNtNtBa_7clients9gramadoir15GramadoirRemoteENCNvNtB8_8http_app17build_app_default0E0Ba_
FNDA:0,_RNCINvNtNtNtCskasGANT74SO_17irish_mcp_gateway5infra7runtime13mcp_transport28make_streamable_http_serviceINtNtNtNtBa_5tools7grammar11tool_router10GrammarSvcNtNtNtBa_7clients9gramadoir15GramadoirRemoteENCNvNtB8_8http_app29build_app_with_deprecated_api0E0Ba_
FNDA:0,_RINvNtNtNtCs6VTIHT4YZ9f_17irish_mcp_gateway5infra7runtime13mcp_transport11serve_stdioppEB8_
FNDA:0,_RNCINvNtNtNtCs6VTIHT4YZ9f_17irish_mcp_gateway5infra7runtime13mcp_transport11serve_stdioppE0Ba_
FNDA:1,_RINvNtNtNtCs6VTIHT4YZ9f_17irish_mcp_gateway5infra7runtime13mcp_transport28make_streamable_http_serviceINtNtNtNtB8_5tools7grammar11tool_router10GrammarSvcNtNtNtB8_7clients9gramadoir15GramadoirRemoteENCNCNvNtB2_5testss_33test_make_streamable_http_service00EB8_
FNDA:1,_RINvNtNtNtCs6VTIHT4YZ9f_17irish_mcp_gateway5infra7runtime13mcp_transport28make_streamable_http_serviceINtNtNtNtB8_5tools7grammar11tool_router10GrammarSvcNtNtNtB8_7clients9gramadoir15GramadoirRemoteENCNCNvNtB2_5testss_56test_make_streamable_http_service_with_different_factory00EB8_
FNDA:2,_RINvNtNtNtCs6VTIHT4YZ9f_17irish_mcp_gateway5infra7runtime13mcp_transport28make_streamable_http_serviceINtNtNtNtB8_5tools7grammar11tool_router10GrammarSvcNtNtNtB8_7clients9gramadoir15GramadoirRemoteENCNvNtB6_8http_app17build_app_default0EB8_
FNDA:1,_RINvNtNtNtCs6VTIHT4YZ9f_17irish_mcp_gateway5infra7runtime13mcp_transport28make_streamable_http_serviceINtNtNtNtB8_5tools7grammar11tool_router10GrammarSvcNtNtNtB8_7clients9gramadoir15GramadoirRemoteENCNvNtB6_8http_app29build_app_with_deprecated_api0EB8_
FNDA:0,_RNCINvNtNtNtCs6VTIHT4YZ9f_17irish_mcp_gateway5infra7runtime13mcp_transport28make_streamable_http_serviceINtNtNtNtBa_5tools7grammar11tool_router10GrammarSvcNtNtNtBa_7clients9gramadoir15GramadoirRemoteENCNCNvNtB4_5testss_33test_make_streamable_http_service00E0Ba_
FNDA:0,_RNCINvNtNtNtCs6VTIHT4YZ9f_17irish_mcp_gateway5infra7runtime13mcp_transport28make_streamable_http_serviceINtNtNtNtBa_5tools7grammar11tool_router10GrammarSvcNtNtNtBa_7clients9gramadoir15GramadoirRemoteENCNCNvNtB4_5testss_56test_make_streamable_http_service_with_different_factory00E0Ba_
FNDA:0,_RNCINvNtNtNtCs6VTIHT4YZ9f_17irish_mcp_gateway5infra7runtime13mcp_transport28make_streamable_http_serviceINtNtNtNtBa_5tools7grammar11tool_router10GrammarSvcNtNtNtBa_7clients9gramadoir15GramadoirRemoteENCNvNtB8_8http_app17build_app_default0E0Ba_
FNDA:0,_RNCINvNtNtNtCs6VTIHT4YZ9f_17irish_mcp_gateway5infra7runtime13mcp_transport28make_streamable_http_serviceINtNtNtNtBa_5tools7grammar11tool_router10GrammarSvcNtNtNtBa_7clients9gramadoir15GramadoirRemoteENCNvNtB8_8http_app29build_app_with_deprecated_api0E0Ba_
FNDA:0,_RNCNCNvNtNtNtNtCs6VTIHT4YZ9f_17irish_mcp_gateway5infra7runtime13mcp_transport5testss_33test_make_streamable_http_service00Bd_
FNDA:0,_RNCNCNvNtNtNtNtCs6VTIHT4YZ9f_17irish_mcp_gateway5infra7runtime13mcp_transport5testss_56test_make_streamable_http_service_with_different_factory00Bd_
FNDA:1,_RNCNvNtNtNtNtCs6VTIHT4YZ9f_17irish_mcp_gateway5infra7runtime13mcp_transport5testss_31test_serve_stdio_factory_called0Bb_
FNDA:1,_RNCNvNtNtNtNtCs6VTIHT4YZ9f_17irish_mcp_gateway5infra7runtime13mcp_transport5testss_33test_make_streamable_http_service0Bb_
FNDA:1,_RNCNvNtNtNtNtCs6VTIHT4YZ9f_17irish_mcp_gateway5infra7runtime13mcp_transport5testss_56test_make_streamable_http_service_with_different_factory0Bb_
FNDA:1,_RNvNtNtNtNtCs6VTIHT4YZ9f_17irish_mcp_gateway5infra7runtime13mcp_transport5testss_31test_serve_stdio_factory_called
FNDA:1,_RNvNtNtNtNtCs6VTIHT4YZ9f_17irish_mcp_gateway5infra7runtime13mcp_transport5testss_33test_make_streamable_http_service
FNDA:1,_RNvNtNtNtNtCs6VTIHT4YZ9f_17irish_mcp_gateway5infra7runtime13mcp_transport5testss_56test_make_streamable_http_service_with_different_factory
FNDA:0,_RINvNtNtNtCshBDQ5eqaBi2_17irish_mcp_gateway5infra7runtime13mcp_transport11serve_stdioppEB8_
FNDA:0,_RNCINvNtNtNtCshBDQ5eqaBi2_17irish_mcp_gateway5infra7runtime13mcp_transport11serve_stdioppE0Ba_
FNDA:0,_RINvNtNtNtCshBDQ5eqaBi2_17irish_mcp_gateway5infra7runtime13mcp_transport28make_streamable_http_serviceINtNtNtNtB8_5tools7grammar11tool_router10GrammarSvcNtNtNtB8_7clients9gramadoir15GramadoirRemoteENCNvNtB6_8http_app17build_app_default0EB8_
FNDA:0,_RINvNtNtNtCshBDQ5eqaBi2_17irish_mcp_gateway5infra7runtime13mcp_transport28make_streamable_http_serviceINtNtNtNtB8_5tools7grammar11tool_router10GrammarSvcNtNtNtB8_7clients9gramadoir15GramadoirRemoteENCNvNtB6_8http_app29build_app_with_deprecated_api0EB8_
FNDA:0,_RNCINvNtNtNtCshBDQ5eqaBi2_17irish_mcp_gateway5infra7runtime13mcp_transport28make_streamable_http_serviceINtNtNtNtBa_5tools7grammar11tool_router10GrammarSvcNtNtNtBa_7clients9gramadoir15GramadoirRemoteENCNvNtB8_8http_app17build_app_default0E0Ba_
FNDA:0,_RNCINvNtNtNtCshBDQ5eqaBi2_17irish_mcp_gateway5infra7runtime13mcp_transport28make_streamable_http_serviceINtNtNtNtBa_5tools7grammar11tool_router10GrammarSvcNtNtNtBa_7clients9gramadoir15GramadoirRemoteENCNvNtB8_8http_app29build_app_with_deprecated_api0E0Ba_
FNDA:1,_RINvNtNtNtCshBDQ5eqaBi2_17irish_mcp_gateway5infra7runtime13mcp_transport28make_streamable_http_serviceINtNtNtNtB8_5tools7grammar11tool_router10GrammarSvcNtNtNtB8_7clients9gramadoir15GramadoirRemoteENCNCNvCs3g5ENcdNk3P_25test_mcp_http_integrations_64v2_initialize_list_and_call_using_pure_transport_and_tool_router0s_0EB3g_
FNDA:1,_RNCINvNtNtNtCshBDQ5eqaBi2_17irish_mcp_gateway5infra7runtime13mcp_transport28make_streamable_http_serviceINtNtNtNtBa_5tools7grammar11tool_router10GrammarSvcNtNtNtBa_7clients9gramadoir15GramadoirRemoteENCNCNvCs3g5ENcdNk3P_25test_mcp_http_integrations_64v2_initialize_list_and_call_using_pure_transport_and_tool_router0s_0E0B3i_
FNF:12
FNH:8
DA:13,0
DA:14,0
DA:15,0
DA:16,0
DA:17,0
DA:18,0
DA:19,0
DA:20,0
DA:21,0
DA:22,0
DA:23,0
DA:24,0
DA:25,0
DA:27,11
DA:28,11
DA:29,11
DA:30,11
DA:31,11
DA:32,11
DA:34,11
DA:35,11
DA:36,1
DA:37,1
DA:38,1
DA:39,1
DA:40,11
DA:41,11
DA:51,2
DA:52,2
DA:53,2
DA:54,0
DA:55,0
DA:56,0
DA:57,0
DA:58,0
DA:60,2
DA:62,2
DA:63,2
DA:66,2
DA:67,2
DA:68,2
DA:69,0
DA:70,0
DA:71,0
DA:72,0
DA:73,0
DA:75,2
DA:77,2
DA:78,2
DA:81,2
DA:82,2
DA:83,2
DA:84,2
DA:85,2
DA:86,2
DA:87,2
DA:90,2
DA:91,2
DA:92,2
BRF:0
BRH:0
LF:67
LH:42
end_of_record
SF:/Users/amacgafraidh/Desktop/irish-mcp-gateway/src/infra/runtime/mod.rs
FN:8,_RNvNtNtNtCskasGANT74SO_17irish_mcp_gateway5infra7runtime5testss_11it_compiles
FN:8,_RNvNtNtNtCs6VTIHT4YZ9f_17irish_mcp_gateway5infra7runtime5testss_11it_compiles
FNDA:1,_RNvNtNtNtCskasGANT74SO_17irish_mcp_gateway5infra7runtime5testss_11it_compiles
FNDA:1,_RNvNtNtNtCs6VTIHT4YZ9f_17irish_mcp_gateway5infra7runtime5testss_11it_compiles
FNF:1
FNH:1
DA:8,2
DA:9,2
DA:10,2
BRF:0
BRH:0
LF:3
LH:3
end_of_record
SF:/Users/amacgafraidh/Desktop/irish-mcp-gateway/src/infra/runtime/session.rs
FN:18,_RINvMNtNtNtCsfRhWF7WD9Ln_17irish_mcp_gateway5infra7runtime7sessionNtB3_20InMemorySessionStore3setpEB9_
FN:14,_RNvMNtNtNtCsfRhWF7WD9Ln_17irish_mcp_gateway5infra7runtime7sessionNtB2_20InMemorySessionStore3get
FN:12,_RNvMNtNtNtCsfRhWF7WD9Ln_17irish_mcp_gateway5infra7runtime7sessionNtB2_20InMemorySessionStore3new
FN:22,_RNvMNtNtNtCsfRhWF7WD9Ln_17irish_mcp_gateway5infra7runtime7sessionNtB2_20InMemorySessionStore6delete
FN:32,_RNvNtNtNtNtCskasGANT74SO_17irish_mcp_gateway5infra7runtime7session5testss_30it_stores_and_retrieves_values
FN:18,_RINvMNtNtNtCskasGANT74SO_17irish_mcp_gateway5infra7runtime7sessionNtB3_20InMemorySessionStore3setReEB9_
FN:14,_RNvMNtNtNtCskasGANT74SO_17irish_mcp_gateway5infra7runtime7sessionNtB2_20InMemorySessionStore3get
FN:12,_RNvMNtNtNtCskasGANT74SO_17irish_mcp_gateway5infra7runtime7sessionNtB2_20InMemorySessionStore3new
FN:22,_RNvMNtNtNtCskasGANT74SO_17irish_mcp_gateway5infra7runtime7sessionNtB2_20InMemorySessionStore6delete
FN:32,_RNvNtNtNtNtCs6VTIHT4YZ9f_17irish_mcp_gateway5infra7runtime7session5testss_30it_stores_and_retrieves_values
FN:18,_RINvMNtNtNtCs6VTIHT4YZ9f_17irish_mcp_gateway5infra7runtime7sessionNtB3_20InMemorySessionStore3setReEB9_
FN:14,_RNvMNtNtNtCs6VTIHT4YZ9f_17irish_mcp_gateway5infra7runtime7sessionNtB2_20InMemorySessionStore3get
FN:12,_RNvMNtNtNtCs6VTIHT4YZ9f_17irish_mcp_gateway5infra7runtime7sessionNtB2_20InMemorySessionStore3new
FN:22,_RNvMNtNtNtCs6VTIHT4YZ9f_17irish_mcp_gateway5infra7runtime7sessionNtB2_20InMemorySessionStore6delete
FN:18,_RINvMNtNtNtCshBDQ5eqaBi2_17irish_mcp_gateway5infra7runtime7sessionNtB3_20InMemorySessionStore3setpEB9_
FN:14,_RNvMNtNtNtCshBDQ5eqaBi2_17irish_mcp_gateway5infra7runtime7sessionNtB2_20InMemorySessionStore3get
FN:12,_RNvMNtNtNtCshBDQ5eqaBi2_17irish_mcp_gateway5infra7runtime7sessionNtB2_20InMemorySessionStore3new
FN:22,_RNvMNtNtNtCshBDQ5eqaBi2_17irish_mcp_gateway5infra7runtime7sessionNtB2_20InMemorySessionStore6delete
FNDA:0,_RINvMNtNtNtCsfRhWF7WD9Ln_17irish_mcp_gateway5infra7runtime7sessionNtB3_20InMemorySessionStore3setpEB9_
FNDA:0,_RNvMNtNtNtCsfRhWF7WD9Ln_17irish_mcp_gateway5infra7runtime7sessionNtB2_20InMemorySessionStore3get
FNDA:0,_RNvMNtNtNtCsfRhWF7WD9Ln_17irish_mcp_gateway5infra7runtime7sessionNtB2_20InMemorySessionStore3new
FNDA:0,_RNvMNtNtNtCsfRhWF7WD9Ln_17irish_mcp_gateway5infra7runtime7sessionNtB2_20InMemorySessionStore6delete
FNDA:1,_RNvNtNtNtNtCskasGANT74SO_17irish_mcp_gateway5infra7runtime7session5testss_30it_stores_and_retrieves_values
FNDA:1,_RINvMNtNtNtCskasGANT74SO_17irish_mcp_gateway5infra7runtime7sessionNtB3_20InMemorySessionStore3setReEB9_
FNDA:2,_RNvMNtNtNtCskasGANT74SO_17irish_mcp_gateway5infra7runtime7sessionNtB2_20InMemorySessionStore3get
FNDA:1,_RNvMNtNtNtCskasGANT74SO_17irish_mcp_gateway5infra7runtime7sessionNtB2_20InMemorySessionStore3new
FNDA:1,_RNvMNtNtNtCskasGANT74SO_17irish_mcp_gateway5infra7runtime7sessionNtB2_20InMemorySessionStore6delete
FNDA:1,_RNvNtNtNtNtCs6VTIHT4YZ9f_17irish_mcp_gateway5infra7runtime7session5testss_30it_stores_and_retrieves_values
FNDA:1,_RINvMNtNtNtCs6VTIHT4YZ9f_17irish_mcp_gateway5infra7runtime7sessionNtB3_20InMemorySessionStore3setReEB9_
FNDA:2,_RNvMNtNtNtCs6VTIHT4YZ9f_17irish_mcp_gateway5infra7runtime7sessionNtB2_20InMemorySessionStore3get
FNDA:1,_RNvMNtNtNtCs6VTIHT4YZ9f_17irish_mcp_gateway5infra7runtime7sessionNtB2_20InMemorySessionStore3new
FNDA:1,_RNvMNtNtNtCs6VTIHT4YZ9f_17irish_mcp_gateway5infra7runtime7sessionNtB2_20InMemorySessionStore6delete
FNDA:0,_RINvMNtNtNtCshBDQ5eqaBi2_17irish_mcp_gateway5infra7runtime7sessionNtB3_20InMemorySessionStore3setpEB9_
FNDA:0,_RNvMNtNtNtCshBDQ5eqaBi2_17irish_mcp_gateway5infra7runtime7sessionNtB2_20InMemorySessionStore3get
FNDA:0,_RNvMNtNtNtCshBDQ5eqaBi2_17irish_mcp_gateway5infra7runtime7sessionNtB2_20InMemorySessionStore3new
FNDA:0,_RNvMNtNtNtCshBDQ5eqaBi2_17irish_mcp_gateway5infra7runtime7sessionNtB2_20InMemorySessionStore6delete
FNF:5
FNH:5
DA:12,2
DA:14,4
DA:15,4
DA:16,4
DA:18,2
DA:19,2
DA:20,2
DA:22,2
DA:23,2
DA:24,2
DA:32,2
DA:33,2
DA:34,2
DA:35,2
DA:36,2
DA:37,2
DA:38,2
DA:39,2
BRF:0
BRH:0
LF:18
LH:18
end_of_record
SF:/Users/amacgafraidh/Desktop/irish-mcp-gateway/src/main.rs
FN:35,_RNCNCNvCsfRhWF7WD9Ln_17irish_mcp_gateway4main00B5_
FN:43,_RNCNCNvCsfRhWF7WD9Ln_17irish_mcp_gateway4main0s_0B5_
FN:13,_RNCNvCsfRhWF7WD9Ln_17irish_mcp_gateway4main0B3_
FN:13,_RNvCsfRhWF7WD9Ln_17irish_mcp_gateway4main
FN:35,_RNCNCNvCskasGANT74SO_17irish_mcp_gateway4main00B5_
FN:43,_RNCNCNvCskasGANT74SO_17irish_mcp_gateway4main0s_0B5_
FN:13,_RNCNvCskasGANT74SO_17irish_mcp_gateway4main0B3_
FN:13,_RNvCskasGANT74SO_17irish_mcp_gateway4main
FNDA:0,_RNCNCNvCsfRhWF7WD9Ln_17irish_mcp_gateway4main00B5_
FNDA:0,_RNCNCNvCsfRhWF7WD9Ln_17irish_mcp_gateway4main0s_0B5_
FNDA:0,_RNCNvCsfRhWF7WD9Ln_17irish_mcp_gateway4main0B3_
FNDA:0,_RNvCsfRhWF7WD9Ln_17irish_mcp_gateway4main
FNDA:0,_RNCNCNvCskasGANT74SO_17irish_mcp_gateway4main00B5_
FNDA:0,_RNCNCNvCskasGANT74SO_17irish_mcp_gateway4main0s_0B5_
FNDA:0,_RNCNvCskasGANT74SO_17irish_mcp_gateway4main0B3_
FNDA:0,_RNvCskasGANT74SO_17irish_mcp_gateway4main
FNF:4
FNH:0
DA:13,0
DA:14,0
DA:17,0
DA:18,0
DA:19,0
DA:20,0
DA:21,0
DA:23,0
DA:25,0
DA:26,0
DA:30,0
DA:34,0
DA:35,0
DA:36,0
DA:37,0
DA:38,0
DA:39,0
DA:40,0
DA:41,0
DA:42,0
DA:43,0
DA:44,0
DA:45,0
DA:48,0
DA:49,0
DA:52,0
DA:53,0
DA:56,0
DA:57,0
DA:58,0
DA:59,0
BRF:0
BRH:0
LF:35
LH:0
end_of_record
SF:/Users/amacgafraidh/Desktop/irish-mcp-gateway/src/tools/grammar.rs
FN:13,_RINvMNtNtCsfRhWF7WD9Ln_17irish_mcp_gateway5tools7grammarNtB3_11GrammarTool3newpEB7_
FN:38,_RNCNCNvXs0_NtNtCsfRhWF7WD9Ln_17irish_mcp_gateway5tools7grammarNtB9_11GrammarToolNtNtBd_6domain4Tool4call00Bd_
FN:27,_RNvXs0_NtNtCsfRhWF7WD9Ln_17irish_mcp_gateway5tools7grammarNtB5_11GrammarToolNtNtB9_6domain4Tool11description
FN:30,_RNvXs0_NtNtCsfRhWF7WD9Ln_17irish_mcp_gateway5tools7grammarNtB5_11GrammarToolNtNtB9_6domain4Tool12input_schema
FN:37,_RNvXs0_NtNtCsfRhWF7WD9Ln_17irish_mcp_gateway5tools7grammarNtB5_11GrammarToolNtNtB9_6domain4Tool4call
FN:24,_RNvXs0_NtNtCsfRhWF7WD9Ln_17irish_mcp_gateway5tools7grammarNtB5_11GrammarToolNtNtB9_6domain4Tool4name
FN:27,_RNvXs0_NtNtCskasGANT74SO_17irish_mcp_gateway5tools7grammarNtB5_11GrammarToolNtNtB9_6domain4Tool11description
FN:30,_RNvXs0_NtNtCskasGANT74SO_17irish_mcp_gateway5tools7grammarNtB5_11GrammarToolNtNtB9_6domain4Tool12input_schema
FN:24,_RNvXs0_NtNtCskasGANT74SO_17irish_mcp_gateway5tools7grammarNtB5_11GrammarToolNtNtB9_6domain4Tool4name
FN:60,_RNCNCNvNtNtNtCskasGANT74SO_17irish_mcp_gateway5tools7grammar5testss_33it_calls_remote_and_shapes_output00Bb_
FN:84,_RNCNvNtNtNtCskasGANT74SO_17irish_mcp_gateway5tools7grammar5testss_25it_validates_missing_text0B9_
FN:57,_RNCNvNtNtNtCskasGANT74SO_17irish_mcp_gateway5tools7grammar5testss_33it_calls_remote_and_shapes_output0B9_
FN:37,_RNvXs0_NtNtCskasGANT74SO_17irish_mcp_gateway5tools7grammarNtB5_11GrammarToolNtNtB9_6domain4Tool4call
FN:84,_RNvNtNtNtCskasGANT74SO_17irish_mcp_gateway5tools7grammar5testss_25it_validates_missing_text
FN:57,_RNvNtNtNtCskasGANT74SO_17irish_mcp_gateway5tools7grammar5testss_33it_calls_remote_and_shapes_output
FN:13,_RINvMNtNtCskasGANT74SO_17irish_mcp_gateway5tools7grammarNtB3_11GrammarTool3newNtNtCs3LPPTODPrjR_5alloc6string6StringEB7_
FN:13,_RINvMNtNtCskasGANT74SO_17irish_mcp_gateway5tools7grammarNtB3_11GrammarTool3newReEB7_
FN:38,_RNCNCNvXs0_NtNtCskasGANT74SO_17irish_mcp_gateway5tools7grammarNtB9_11GrammarToolNtNtBd_6domain4Tool4call00Bd_
FN:27,_RNvXs0_NtNtCs6VTIHT4YZ9f_17irish_mcp_gateway5tools7grammarNtB5_11GrammarToolNtNtB9_6domain4Tool11description
FN:30,_RNvXs0_NtNtCs6VTIHT4YZ9f_17irish_mcp_gateway5tools7grammarNtB5_11GrammarToolNtNtB9_6domain4Tool12input_schema
FN:24,_RNvXs0_NtNtCs6VTIHT4YZ9f_17irish_mcp_gateway5tools7grammarNtB5_11GrammarToolNtNtB9_6domain4Tool4name
FN:84,_RNvNtNtNtCs6VTIHT4YZ9f_17irish_mcp_gateway5tools7grammar5testss_25it_validates_missing_text
FN:57,_RNvNtNtNtCs6VTIHT4YZ9f_17irish_mcp_gateway5tools7grammar5testss_33it_calls_remote_and_shapes_output
FN:37,_RNvXs0_NtNtCs6VTIHT4YZ9f_17irish_mcp_gateway5tools7grammarNtB5_11GrammarToolNtNtB9_6domain4Tool4call
FN:13,_RINvMNtNtCs6VTIHT4YZ9f_17irish_mcp_gateway5tools7grammarNtB3_11GrammarTool3newNtNtCs3LPPTODPrjR_5alloc6string6StringEB7_
FN:13,_RINvMNtNtCs6VTIHT4YZ9f_17irish_mcp_gateway5tools7grammarNtB3_11GrammarTool3newReEB7_
FN:38,_RNCNCNvXs0_NtNtCs6VTIHT4YZ9f_17irish_mcp_gateway5tools7grammarNtB9_11GrammarToolNtNtBd_6domain4Tool4call00Bd_
FN:60,_RNCNCNvNtNtNtCs6VTIHT4YZ9f_17irish_mcp_gateway5tools7grammar5testss_33it_calls_remote_and_shapes_output00Bb_
FN:84,_RNCNvNtNtNtCs6VTIHT4YZ9f_17irish_mcp_gateway5tools7grammar5testss_25it_validates_missing_text0B9_
FN:57,_RNCNvNtNtNtCs6VTIHT4YZ9f_17irish_mcp_gateway5tools7grammar5testss_33it_calls_remote_and_shapes_output0B9_
FN:13,_RINvMNtNtCshBDQ5eqaBi2_17irish_mcp_gateway5tools7grammarNtB3_11GrammarTool3newpEB7_
FN:38,_RNCNCNvXs0_NtNtCshBDQ5eqaBi2_17irish_mcp_gateway5tools7grammarNtB9_11GrammarToolNtNtBd_6domain4Tool4call00Bd_
FNDA:0,_RINvMNtNtCsfRhWF7WD9Ln_17irish_mcp_gateway5tools7grammarNtB3_11GrammarTool3newpEB7_
FNDA:0,_RNCNCNvXs0_NtNtCsfRhWF7WD9Ln_17irish_mcp_gateway5tools7grammarNtB9_11GrammarToolNtNtBd_6domain4Tool4call00Bd_
FNDA:0,_RNvXs0_NtNtCsfRhWF7WD9Ln_17irish_mcp_gateway5tools7grammarNtB5_11GrammarToolNtNtB9_6domain4Tool11description
FNDA:0,_RNvXs0_NtNtCsfRhWF7WD9Ln_17irish_mcp_gateway5tools7grammarNtB5_11GrammarToolNtNtB9_6domain4Tool12input_schema
FNDA:0,_RNvXs0_NtNtCsfRhWF7WD9Ln_17irish_mcp_gateway5tools7grammarNtB5_11GrammarToolNtNtB9_6domain4Tool4call
FNDA:0,_RNvXs0_NtNtCsfRhWF7WD9Ln_17irish_mcp_gateway5tools7grammarNtB5_11GrammarToolNtNtB9_6domain4Tool4name
FNDA:0,_RNvXs0_NtNtCskasGANT74SO_17irish_mcp_gateway5tools7grammarNtB5_11GrammarToolNtNtB9_6domain4Tool11description
FNDA:0,_RNvXs0_NtNtCskasGANT74SO_17irish_mcp_gateway5tools7grammarNtB5_11GrammarToolNtNtB9_6domain4Tool12input_schema
FNDA:0,_RNvXs0_NtNtCskasGANT74SO_17irish_mcp_gateway5tools7grammarNtB5_11GrammarToolNtNtB9_6domain4Tool4name
FNDA:1,_RNCNCNvNtNtNtCskasGANT74SO_17irish_mcp_gateway5tools7grammar5testss_33it_calls_remote_and_shapes_output00Bb_
FNDA:1,_RNCNvNtNtNtCskasGANT74SO_17irish_mcp_gateway5tools7grammar5testss_25it_validates_missing_text0B9_
FNDA:1,_RNCNvNtNtNtCskasGANT74SO_17irish_mcp_gateway5tools7grammar5testss_33it_calls_remote_and_shapes_output0B9_
FNDA:2,_RNvXs0_NtNtCskasGANT74SO_17irish_mcp_gateway5tools7grammarNtB5_11GrammarToolNtNtB9_6domain4Tool4call
FNDA:1,_RNvNtNtNtCskasGANT74SO_17irish_mcp_gateway5tools7grammar5testss_25it_validates_missing_text
FNDA:1,_RNvNtNtNtCskasGANT74SO_17irish_mcp_gateway5tools7grammar5testss_33it_calls_remote_and_shapes_output
FNDA:1,_RINvMNtNtCskasGANT74SO_17irish_mcp_gateway5tools7grammarNtB3_11GrammarTool3newNtNtCs3LPPTODPrjR_5alloc6string6StringEB7_
FNDA:1,_RINvMNtNtCskasGANT74SO_17irish_mcp_gateway5tools7grammarNtB3_11GrammarTool3newReEB7_
FNDA:1,_RNCNCNvXs0_NtNtCskasGANT74SO_17irish_mcp_gateway5tools7grammarNtB9_11GrammarToolNtNtBd_6domain4Tool4call00Bd_
FNDA:0,_RNvXs0_NtNtCs6VTIHT4YZ9f_17irish_mcp_gateway5tools7grammarNtB5_11GrammarToolNtNtB9_6domain4Tool11description
FNDA:0,_RNvXs0_NtNtCs6VTIHT4YZ9f_17irish_mcp_gateway5tools7grammarNtB5_11GrammarToolNtNtB9_6domain4Tool12input_schema
FNDA:0,_RNvXs0_NtNtCs6VTIHT4YZ9f_17irish_mcp_gateway5tools7grammarNtB5_11GrammarToolNtNtB9_6domain4Tool4name
FNDA:1,_RNvNtNtNtCs6VTIHT4YZ9f_17irish_mcp_gateway5tools7grammar5testss_25it_validates_missing_text
FNDA:1,_RNvNtNtNtCs6VTIHT4YZ9f_17irish_mcp_gateway5tools7grammar5testss_33it_calls_remote_and_shapes_output
FNDA:2,_RNvXs0_NtNtCs6VTIHT4YZ9f_17irish_mcp_gateway5tools7grammarNtB5_11GrammarToolNtNtB9_6domain4Tool4call
FNDA:1,_RINvMNtNtCs6VTIHT4YZ9f_17irish_mcp_gateway5tools7grammarNtB3_11GrammarTool3newNtNtCs3LPPTODPrjR_5alloc6string6StringEB7_
FNDA:1,_RINvMNtNtCs6VTIHT4YZ9f_17irish_mcp_gateway5tools7grammarNtB3_11GrammarTool3newReEB7_
FNDA:1,_RNCNCNvXs0_NtNtCs6VTIHT4YZ9f_17irish_mcp_gateway5tools7grammarNtB9_11GrammarToolNtNtBd_6domain4Tool4call00Bd_
FNDA:1,_RNCNCNvNtNtNtCs6VTIHT4YZ9f_17irish_mcp_gateway5tools7grammar5testss_33it_calls_remote_and_shapes_output00Bb_
FNDA:1,_RNCNvNtNtNtCs6VTIHT4YZ9f_17irish_mcp_gateway5tools7grammar5testss_25it_validates_missing_text0B9_
FNDA:1,_RNCNvNtNtNtCs6VTIHT4YZ9f_17irish_mcp_gateway5tools7grammar5testss_33it_calls_remote_and_shapes_output0B9_
FNDA:0,_RINvMNtNtCshBDQ5eqaBi2_17irish_mcp_gateway5tools7grammarNtB3_11GrammarTool3newpEB7_
FNDA:0,_RNCNCNvXs0_NtNtCshBDQ5eqaBi2_17irish_mcp_gateway5tools7grammarNtB9_11GrammarToolNtNtBd_6domain4Tool4call00Bd_
FNF:11
FNH:8
DA:13,4
DA:14,4
DA:15,4
DA:16,4
DA:17,4
DA:24,0
DA:25,0
DA:26,0
DA:27,0
DA:28,0
DA:29,0
DA:30,0
DA:31,0
DA:32,0
DA:33,0
DA:34,0
DA:36,0
DA:37,4
DA:38,2
DA:47,4
DA:57,2
DA:58,2
DA:60,2
DA:61,2
DA:62,2
DA:63,2
DA:64,2
DA:65,2
DA:66,2
DA:67,2
DA:68,2
DA:69,2
DA:70,2
DA:71,2
DA:72,2
DA:73,2
DA:75,2
DA:77,2
DA:78,2
DA:79,2
DA:80,2
DA:81,2
DA:84,2
DA:85,2
DA:86,2
DA:87,2
DA:88,2
BRF:0
BRH:0
LF:52
LH:40
end_of_record
SF:/Users/amacgafraidh/Desktop/irish-mcp-gateway/src/tools/grammar/tool_router.rs
FN:28,_RNCNCNvMs1_NtNtNtCsfRhWF7WD9Ln_17irish_mcp_gateway5tools7grammar11tool_routerINtB9_10GrammarSvcNtNtNtBf_7clients9gramadoir15GramadoirRemoteE18gael_grammar_check00Bf_
FN:35,_RNCNCNvMs1_NtNtNtCsfRhWF7WD9Ln_17irish_mcp_gateway5tools7grammar11tool_routerINtB9_10GrammarSvcNtNtNtBf_7clients9gramadoir15GramadoirRemoteE18gael_grammar_check0s0_0Bf_
FN:29,_RNCNCNvMs1_NtNtNtCsfRhWF7WD9Ln_17irish_mcp_gateway5tools7grammar11tool_routerINtB9_10GrammarSvcNtNtNtBf_7clients9gramadoir15GramadoirRemoteE18gael_grammar_check0s_0Bf_
FN:24,_RNCNvMs1_NtNtNtCsfRhWF7WD9Ln_17irish_mcp_gateway5tools7grammar11tool_routerINtB7_10GrammarSvcNtNtNtBd_7clients9gramadoir15GramadoirRemoteE18gael_grammar_check0Bd_
FN:43,_RNvMs_NtNtNtCsfRhWF7WD9Ln_17irish_mcp_gateway5tools7grammar11tool_routerINtB4_10GrammarSvcNtNtNtBa_7clients9gramadoir15GramadoirRemoteE6router
FN:28,_RNCNCNvMs1_NtNtNtCskasGANT74SO_17irish_mcp_gateway5tools7grammar11tool_routerINtB9_10GrammarSvcNtNtNtBf_7clients9gramadoir15GramadoirRemoteE18gael_grammar_check00Bf_
FN:35,_RNCNCNvMs1_NtNtNtCskasGANT74SO_17irish_mcp_gateway5tools7grammar11tool_routerINtB9_10GrammarSvcNtNtNtBf_7clients9gramadoir15GramadoirRemoteE18gael_grammar_check0s0_0Bf_
FN:29,_RNCNCNvMs1_NtNtNtCskasGANT74SO_17irish_mcp_gateway5tools7grammar11tool_routerINtB9_10GrammarSvcNtNtNtBf_7clients9gramadoir15GramadoirRemoteE18gael_grammar_check0s_0Bf_
FN:24,_RNCNvMs1_NtNtNtCskasGANT74SO_17irish_mcp_gateway5tools7grammar11tool_routerINtB7_10GrammarSvcNtNtNtBd_7clients9gramadoir15GramadoirRemoteE18gael_grammar_check0Bd_
FN:43,_RNvMs_NtNtNtCskasGANT74SO_17irish_mcp_gateway5tools7grammar11tool_routerINtB4_10GrammarSvcNtNtNtBa_7clients9gramadoir15GramadoirRemoteE6router
FN:131,_RINvNvNtNtNtNtCskasGANT74SO_17irish_mcp_gateway5tools7grammar11tool_router5testss_30test_server_handler_trait_impl21assert_server_handlerINtB6_10GrammarSvcNtNtNtBc_7clients9gramadoir15GramadoirRemoteEEBc_
FN:107,_RNCNvNtNtNtNtCskasGANT74SO_17irish_mcp_gateway5tools7grammar11tool_router5testss_28test_grammar_check_with_text0Bb_
FN:81,_RNCNvNtNtNtNtCskasGANT74SO_17irish_mcp_gateway5tools7grammar11tool_router5testss_31test_grammar_check_missing_text0Bb_
FN:94,_RNCNvNtNtNtNtCskasGANT74SO_17irish_mcp_gateway5tools7grammar11tool_router5testss_36test_grammar_check_invalid_text_type0Bb_
FN:72,_RNvNtNtNtNtCskasGANT74SO_17irish_mcp_gateway5tools7grammar11tool_router5testss_22test_grammar_svc_clone
FN:57,_RNvNtNtNtNtCskasGANT74SO_17irish_mcp_gateway5tools7grammar11tool_router5testss_25test_grammar_svc_creation
FN:107,_RNvNtNtNtNtCskasGANT74SO_17irish_mcp_gateway5tools7grammar11tool_router5testss_28test_grammar_check_with_text
FN:65,_RNvNtNtNtNtCskasGANT74SO_17irish_mcp_gateway5tools7grammar11tool_router5testss_28test_grammar_router_creation
FN:119,_RNvNtNtNtNtCskasGANT74SO_17irish_mcp_gateway5tools7grammar11tool_router5testss_30test_grammar_router_type_alias
FN:126,_RNvNtNtNtNtCskasGANT74SO_17irish_mcp_gateway5tools7grammar11tool_router5testss_30test_server_handler_trait_impl
FN:81,_RNvNtNtNtNtCskasGANT74SO_17irish_mcp_gateway5tools7grammar11tool_router5testss_31test_grammar_check_missing_text
FN:94,_RNvNtNtNtNtCskasGANT74SO_17irish_mcp_gateway5tools7grammar11tool_router5testss_36test_grammar_check_invalid_text_type
FN:28,_RNCNCNvMs1_NtNtNtCs6VTIHT4YZ9f_17irish_mcp_gateway5tools7grammar11tool_routerINtB9_10GrammarSvcNtNtNtBf_7clients9gramadoir15GramadoirRemoteE18gael_grammar_check00Bf_
FN:35,_RNCNCNvMs1_NtNtNtCs6VTIHT4YZ9f_17irish_mcp_gateway5tools7grammar11tool_routerINtB9_10GrammarSvcNtNtNtBf_7clients9gramadoir15GramadoirRemoteE18gael_grammar_check0s0_0Bf_
FN:29,_RNCNCNvMs1_NtNtNtCs6VTIHT4YZ9f_17irish_mcp_gateway5tools7grammar11tool_routerINtB9_10GrammarSvcNtNtNtBf_7clients9gramadoir15GramadoirRemoteE18gael_grammar_check0s_0Bf_
FN:24,_RNCNvMs1_NtNtNtCs6VTIHT4YZ9f_17irish_mcp_gateway5tools7grammar11tool_routerINtB7_10GrammarSvcNtNtNtBd_7clients9gramadoir15GramadoirRemoteE18gael_grammar_check0Bd_
FN:43,_RNvMs_NtNtNtCs6VTIHT4YZ9f_17irish_mcp_gateway5tools7grammar11tool_routerINtB4_10GrammarSvcNtNtNtBa_7clients9gramadoir15GramadoirRemoteE6router
FN:72,_RNvNtNtNtNtCs6VTIHT4YZ9f_17irish_mcp_gateway5tools7grammar11tool_router5testss_22test_grammar_svc_clone
FN:57,_RNvNtNtNtNtCs6VTIHT4YZ9f_17irish_mcp_gateway5tools7grammar11tool_router5testss_25test_grammar_svc_creation
FN:107,_RNvNtNtNtNtCs6VTIHT4YZ9f_17irish_mcp_gateway5tools7grammar11tool_router5testss_28test_grammar_check_with_text
FN:65,_RNvNtNtNtNtCs6VTIHT4YZ9f_17irish_mcp_gateway5tools7grammar11tool_router5testss_28test_grammar_router_creation
FN:119,_RNvNtNtNtNtCs6VTIHT4YZ9f_17irish_mcp_gateway5tools7grammar11tool_router5testss_30test_grammar_router_type_alias
FN:126,_RNvNtNtNtNtCs6VTIHT4YZ9f_17irish_mcp_gateway5tools7grammar11tool_router5testss_30test_server_handler_trait_impl
FN:81,_RNvNtNtNtNtCs6VTIHT4YZ9f_17irish_mcp_gateway5tools7grammar11tool_router5testss_31test_grammar_check_missing_text
FN:94,_RNvNtNtNtNtCs6VTIHT4YZ9f_17irish_mcp_gateway5tools7grammar11tool_router5testss_36test_grammar_check_invalid_text_type
FN:131,_RINvNvNtNtNtNtCs6VTIHT4YZ9f_17irish_mcp_gateway5tools7grammar11tool_router5testss_30test_server_handler_trait_impl21assert_server_handlerINtB6_10GrammarSvcNtNtNtBc_7clients9gramadoir15GramadoirRemoteEEBc_
FN:107,_RNCNvNtNtNtNtCs6VTIHT4YZ9f_17irish_mcp_gateway5tools7grammar11tool_router5testss_28test_grammar_check_with_text0Bb_
FN:81,_RNCNvNtNtNtNtCs6VTIHT4YZ9f_17irish_mcp_gateway5tools7grammar11tool_router5testss_31test_grammar_check_missing_text0Bb_
FN:94,_RNCNvNtNtNtNtCs6VTIHT4YZ9f_17irish_mcp_gateway5tools7grammar11tool_router5testss_36test_grammar_check_invalid_text_type0Bb_
FN:28,_RNCNCNvMs1_NtNtNtCshBDQ5eqaBi2_17irish_mcp_gateway5tools7grammar11tool_routerINtB9_10GrammarSvcNtNtNtBf_7clients9gramadoir15GramadoirRemoteE18gael_grammar_check00Bf_
FN:35,_RNCNCNvMs1_NtNtNtCshBDQ5eqaBi2_17irish_mcp_gateway5tools7grammar11tool_routerINtB9_10GrammarSvcNtNtNtBf_7clients9gramadoir15GramadoirRemoteE18gael_grammar_check0s0_0Bf_
FN:29,_RNCNCNvMs1_NtNtNtCshBDQ5eqaBi2_17irish_mcp_gateway5tools7grammar11tool_routerINtB9_10GrammarSvcNtNtNtBf_7clients9gramadoir15GramadoirRemoteE18gael_grammar_check0s_0Bf_
FN:24,_RNCNvMs1_NtNtNtCshBDQ5eqaBi2_17irish_mcp_gateway5tools7grammar11tool_routerINtB7_10GrammarSvcNtNtNtBd_7clients9gramadoir15GramadoirRemoteE18gael_grammar_check0Bd_
FN:43,_RNvMs_NtNtNtCshBDQ5eqaBi2_17irish_mcp_gateway5tools7grammar11tool_routerINtB4_10GrammarSvcNtNtNtBa_7clients9gramadoir15GramadoirRemoteE6router
FNDA:0,_RNCNCNvMs1_NtNtNtCsfRhWF7WD9Ln_17irish_mcp_gateway5tools7grammar11tool_routerINtB9_10GrammarSvcNtNtNtBf_7clients9gramadoir15GramadoirRemoteE18gael_grammar_check00Bf_
FNDA:0,_RNCNCNvMs1_NtNtNtCsfRhWF7WD9Ln_17irish_mcp_gateway5tools7grammar11tool_routerINtB9_10GrammarSvcNtNtNtBf_7clients9gramadoir15GramadoirRemoteE18gael_grammar_check0s0_0Bf_
FNDA:0,_RNCNCNvMs1_NtNtNtCsfRhWF7WD9Ln_17irish_mcp_gateway5tools7grammar11tool_routerINtB9_10GrammarSvcNtNtNtBf_7clients9gramadoir15GramadoirRemoteE18gael_grammar_check0s_0Bf_
FNDA:0,_RNCNvMs1_NtNtNtCsfRhWF7WD9Ln_17irish_mcp_gateway5tools7grammar11tool_routerINtB7_10GrammarSvcNtNtNtBd_7clients9gramadoir15GramadoirRemoteE18gael_grammar_check0Bd_
FNDA:0,_RNvMs_NtNtNtCsfRhWF7WD9Ln_17irish_mcp_gateway5tools7grammar11tool_routerINtB4_10GrammarSvcNtNtNtBa_7clients9gramadoir15GramadoirRemoteE6router
FNDA:2,_RNCNCNvMs1_NtNtNtCskasGANT74SO_17irish_mcp_gateway5tools7grammar11tool_routerINtB9_10GrammarSvcNtNtNtBf_7clients9gramadoir15GramadoirRemoteE18gael_grammar_check00Bf_
FNDA:1,_RNCNCNvMs1_NtNtNtCskasGANT74SO_17irish_mcp_gateway5tools7grammar11tool_routerINtB9_10GrammarSvcNtNtNtBf_7clients9gramadoir15GramadoirRemoteE18gael_grammar_check0s0_0Bf_
FNDA:2,_RNCNCNvMs1_NtNtNtCskasGANT74SO_17irish_mcp_gateway5tools7grammar11tool_routerINtB9_10GrammarSvcNtNtNtBf_7clients9gramadoir15GramadoirRemoteE18gael_grammar_check0s_0Bf_
FNDA:3,_RNCNvMs1_NtNtNtCskasGANT74SO_17irish_mcp_gateway5tools7grammar11tool_routerINtB7_10GrammarSvcNtNtNtBd_7clients9gramadoir15GramadoirRemoteE18gael_grammar_check0Bd_
FNDA:3,_RNvMs_NtNtNtCskasGANT74SO_17irish_mcp_gateway5tools7grammar11tool_routerINtB4_10GrammarSvcNtNtNtBa_7clients9gramadoir15GramadoirRemoteE6router
FNDA:1,_RINvNvNtNtNtNtCskasGANT74SO_17irish_mcp_gateway5tools7grammar11tool_router5testss_30test_server_handler_trait_impl21assert_server_handlerINtB6_10GrammarSvcNtNtNtBc_7clients9gramadoir15GramadoirRemoteEEBc_
FNDA:1,_RNCNvNtNtNtNtCskasGANT74SO_17irish_mcp_gateway5tools7grammar11tool_router5testss_28test_grammar_check_with_text0Bb_
FNDA:1,_RNCNvNtNtNtNtCskasGANT74SO_17irish_mcp_gateway5tools7grammar11tool_router5testss_31test_grammar_check_missing_text0Bb_
FNDA:1,_RNCNvNtNtNtNtCskasGANT74SO_17irish_mcp_gateway5tools7grammar11tool_router5testss_36test_grammar_check_invalid_text_type0Bb_
FNDA:1,_RNvNtNtNtNtCskasGANT74SO_17irish_mcp_gateway5tools7grammar11tool_router5testss_22test_grammar_svc_clone
FNDA:1,_RNvNtNtNtNtCskasGANT74SO_17irish_mcp_gateway5tools7grammar11tool_router5testss_25test_grammar_svc_creation
FNDA:1,_RNvNtNtNtNtCskasGANT74SO_17irish_mcp_gateway5tools7grammar11tool_router5testss_28test_grammar_check_with_text
FNDA:1,_RNvNtNtNtNtCskasGANT74SO_17irish_mcp_gateway5tools7grammar11tool_router5testss_28test_grammar_router_creation
FNDA:1,_RNvNtNtNtNtCskasGANT74SO_17irish_mcp_gateway5tools7grammar11tool_router5testss_30test_grammar_router_type_alias
FNDA:1,_RNvNtNtNtNtCskasGANT74SO_17irish_mcp_gateway5tools7grammar11tool_router5testss_30test_server_handler_trait_impl
FNDA:1,_RNvNtNtNtNtCskasGANT74SO_17irish_mcp_gateway5tools7grammar11tool_router5testss_31test_grammar_check_missing_text
FNDA:1,_RNvNtNtNtNtCskasGANT74SO_17irish_mcp_gateway5tools7grammar11tool_router5testss_36test_grammar_check_invalid_text_type
FNDA:2,_RNCNCNvMs1_NtNtNtCs6VTIHT4YZ9f_17irish_mcp_gateway5tools7grammar11tool_routerINtB9_10GrammarSvcNtNtNtBf_7clients9gramadoir15GramadoirRemoteE18gael_grammar_check00Bf_
FNDA:1,_RNCNCNvMs1_NtNtNtCs6VTIHT4YZ9f_17irish_mcp_gateway5tools7grammar11tool_routerINtB9_10GrammarSvcNtNtNtBf_7clients9gramadoir15GramadoirRemoteE18gael_grammar_check0s0_0Bf_
FNDA:2,_RNCNCNvMs1_NtNtNtCs6VTIHT4YZ9f_17irish_mcp_gateway5tools7grammar11tool_routerINtB9_10GrammarSvcNtNtNtBf_7clients9gramadoir15GramadoirRemoteE18gael_grammar_check0s_0Bf_
FNDA:3,_RNCNvMs1_NtNtNtCs6VTIHT4YZ9f_17irish_mcp_gateway5tools7grammar11tool_routerINtB7_10GrammarSvcNtNtNtBd_7clients9gramadoir15GramadoirRemoteE18gael_grammar_check0Bd_
FNDA:3,_RNvMs_NtNtNtCs6VTIHT4YZ9f_17irish_mcp_gateway5tools7grammar11tool_routerINtB4_10GrammarSvcNtNtNtBa_7clients9gramadoir15GramadoirRemoteE6router
FNDA:1,_RNvNtNtNtNtCs6VTIHT4YZ9f_17irish_mcp_gateway5tools7grammar11tool_router5testss_22test_grammar_svc_clone
FNDA:1,_RNvNtNtNtNtCs6VTIHT4YZ9f_17irish_mcp_gateway5tools7grammar11tool_router5testss_25test_grammar_svc_creation
FNDA:1,_RNvNtNtNtNtCs6VTIHT4YZ9f_17irish_mcp_gateway5tools7grammar11tool_router5testss_28test_grammar_check_with_text
FNDA:1,_RNvNtNtNtNtCs6VTIHT4YZ9f_17irish_mcp_gateway5tools7grammar11tool_router5testss_28test_grammar_router_creation
FNDA:1,_RNvNtNtNtNtCs6VTIHT4YZ9f_17irish_mcp_gateway5tools7grammar11tool_router5testss_30test_grammar_router_type_alias
FNDA:1,_RNvNtNtNtNtCs6VTIHT4YZ9f_17irish_mcp_gateway5tools7grammar11tool_router5testss_30test_server_handler_trait_impl
FNDA:1,_RNvNtNtNtNtCs6VTIHT4YZ9f_17irish_mcp_gateway5tools7grammar11tool_router5testss_31test_grammar_check_missing_text
FNDA:1,_RNvNtNtNtNtCs6VTIHT4YZ9f_17irish_mcp_gateway5tools7grammar11tool_router5testss_36test_grammar_check_invalid_text_type
FNDA:1,_RINvNvNtNtNtNtCs6VTIHT4YZ9f_17irish_mcp_gateway5tools7grammar11tool_router5testss_30test_server_handler_trait_impl21assert_server_handlerINtB6_10GrammarSvcNtNtNtBc_7clients9gramadoir15GramadoirRemoteEEBc_
FNDA:1,_RNCNvNtNtNtNtCs6VTIHT4YZ9f_17irish_mcp_gateway5tools7grammar11tool_router5testss_28test_grammar_check_with_text0Bb_
FNDA:1,_RNCNvNtNtNtNtCs6VTIHT4YZ9f_17irish_mcp_gateway5tools7grammar11tool_router5testss_31test_grammar_check_missing_text0Bb_
FNDA:1,_RNCNvNtNtNtNtCs6VTIHT4YZ9f_17irish_mcp_gateway5tools7grammar11tool_router5testss_36test_grammar_check_invalid_text_type0Bb_
FNDA:1,_RNCNCNvMs1_NtNtNtCshBDQ5eqaBi2_17irish_mcp_gateway5tools7grammar11tool_routerINtB9_10GrammarSvcNtNtNtBf_7clients9gramadoir15GramadoirRemoteE18gael_grammar_check00Bf_
FNDA:0,_RNCNCNvMs1_NtNtNtCshBDQ5eqaBi2_17irish_mcp_gateway5tools7grammar11tool_routerINtB9_10GrammarSvcNtNtNtBf_7clients9gramadoir15GramadoirRemoteE18gael_grammar_check0s0_0Bf_
FNDA:0,_RNCNCNvMs1_NtNtNtCshBDQ5eqaBi2_17irish_mcp_gateway5tools7grammar11tool_routerINtB9_10GrammarSvcNtNtNtBf_7clients9gramadoir15GramadoirRemoteE18gael_grammar_check0s_0Bf_
FNDA:1,_RNCNvMs1_NtNtNtCshBDQ5eqaBi2_17irish_mcp_gateway5tools7grammar11tool_routerINtB7_10GrammarSvcNtNtNtBd_7clients9gramadoir15GramadoirRemoteE18gael_grammar_check0Bd_
FNDA:1,_RNvMs_NtNtNtCshBDQ5eqaBi2_17irish_mcp_gateway5tools7grammar11tool_routerINtB4_10GrammarSvcNtNtNtBa_7clients9gramadoir15GramadoirRemoteE6router
FNF:17
FNH:17
DA:24,7
DA:25,7
DA:26,7
DA:27,7
DA:28,7
DA:29,7
DA:30,3
DA:31,3
DA:32,3
DA:33,3
DA:34,3
DA:35,3
DA:36,1
DA:43,7
DA:45,7
DA:46,7
DA:57,2
DA:58,2
DA:59,2
DA:61,2
DA:62,2
DA:65,2
DA:66,2
DA:68,2
DA:69,2
DA:72,2
DA:73,2
DA:74,2
DA:75,2
DA:77,2
DA:78,2
DA:81,2
DA:82,2
DA:83,2
DA:84,2
DA:86,2
DA:87,2
DA:88,2
DA:89,2
DA:90,2
DA:91,2
DA:94,2
DA:95,2
DA:96,2
DA:97,2
DA:99,2
DA:100,2
DA:101,2
DA:102,2
DA:103,2
DA:104,2
DA:107,2
DA:108,2
DA:109,2
DA:110,2
DA:114,2
DA:115,2
DA:116,2
DA:119,2
DA:120,2
DA:122,2
DA:123,2
DA:126,2
DA:127,2
DA:128,2
DA:131,2
DA:132,2
DA:133,2
BRF:0
BRH:0
LF:81
LH:79
end_of_record
SF:/Users/amacgafraidh/Desktop/irish-mcp-gateway/src/tools/hello.rs
FN:22,_RNCNCNvXs0_NtNtCsfRhWF7WD9Ln_17irish_mcp_gateway5tools5helloNtB9_9HelloToolNtNtBd_6domain4Tool4call00Bd_
FN:13,_RNvXs0_NtNtCsfRhWF7WD9Ln_17irish_mcp_gateway5tools5helloNtB5_9HelloToolNtNtB9_6domain4Tool11description
FN:16,_RNvXs0_NtNtCsfRhWF7WD9Ln_17irish_mcp_gateway5tools5helloNtB5_9HelloToolNtNtB9_6domain4Tool12input_schema
FN:19,_RNvXs0_NtNtCsfRhWF7WD9Ln_17irish_mcp_gateway5tools5helloNtB5_9HelloToolNtNtB9_6domain4Tool4call
FN:10,_RNvXs0_NtNtCsfRhWF7WD9Ln_17irish_mcp_gateway5tools5helloNtB5_9HelloToolNtNtB9_6domain4Tool4name
FN:41,_RNvNtNtNtCskasGANT74SO_17irish_mcp_gateway5tools5hello5testss_24it_knows_hello_with_name
FN:48,_RNvNtNtNtCskasGANT74SO_17irish_mcp_gateway5tools5hello5testss_29it_knows_schema_has_name_prop
FN:34,_RNvNtNtNtCskasGANT74SO_17irish_mcp_gateway5tools5hello5testss_32it_knows_hello_defaults_to_world
FN:13,_RNvXs0_NtNtCskasGANT74SO_17irish_mcp_gateway5tools5helloNtB5_9HelloToolNtNtB9_6domain4Tool11description
FN:10,_RNvXs0_NtNtCskasGANT74SO_17irish_mcp_gateway5tools5helloNtB5_9HelloToolNtNtB9_6domain4Tool4name
FN:16,_RNvXs0_NtNtCskasGANT74SO_17irish_mcp_gateway5tools5helloNtB5_9HelloToolNtNtB9_6domain4Tool12input_schema
FN:19,_RNvXs0_NtNtCskasGANT74SO_17irish_mcp_gateway5tools5helloNtB5_9HelloToolNtNtB9_6domain4Tool4call
FN:22,_RNCNCNvXs0_NtNtCskasGANT74SO_17irish_mcp_gateway5tools5helloNtB9_9HelloToolNtNtBd_6domain4Tool4call00Bd_
FN:41,_RNCNvNtNtNtCskasGANT74SO_17irish_mcp_gateway5tools5hello5testss_24it_knows_hello_with_name0B9_
FN:34,_RNCNvNtNtNtCskasGANT74SO_17irish_mcp_gateway5tools5hello5testss_32it_knows_hello_defaults_to_world0B9_
FN:13,_RNvXs0_NtNtCs6VTIHT4YZ9f_17irish_mcp_gateway5tools5helloNtB5_9HelloToolNtNtB9_6domain4Tool11description
FN:10,_RNvXs0_NtNtCs6VTIHT4YZ9f_17irish_mcp_gateway5tools5helloNtB5_9HelloToolNtNtB9_6domain4Tool4name
FN:41,_RNCNvNtNtNtCs6VTIHT4YZ9f_17irish_mcp_gateway5tools5hello5testss_24it_knows_hello_with_name0B9_
FN:34,_RNCNvNtNtNtCs6VTIHT4YZ9f_17irish_mcp_gateway5tools5hello5testss_32it_knows_hello_defaults_to_world0B9_
FN:16,_RNvXs0_NtNtCs6VTIHT4YZ9f_17irish_mcp_gateway5tools5helloNtB5_9HelloToolNtNtB9_6domain4Tool12input_schema
FN:19,_RNvXs0_NtNtCs6VTIHT4YZ9f_17irish_mcp_gateway5tools5helloNtB5_9HelloToolNtNtB9_6domain4Tool4call
FN:22,_RNCNCNvXs0_NtNtCs6VTIHT4YZ9f_17irish_mcp_gateway5tools5helloNtB9_9HelloToolNtNtBd_6domain4Tool4call00Bd_
FN:41,_RNvNtNtNtCs6VTIHT4YZ9f_17irish_mcp_gateway5tools5hello5testss_24it_knows_hello_with_name
FN:48,_RNvNtNtNtCs6VTIHT4YZ9f_17irish_mcp_gateway5tools5hello5testss_29it_knows_schema_has_name_prop
FN:34,_RNvNtNtNtCs6VTIHT4YZ9f_17irish_mcp_gateway5tools5hello5testss_32it_knows_hello_defaults_to_world
FN:22,_RNCNCNvXs0_NtNtCshBDQ5eqaBi2_17irish_mcp_gateway5tools5helloNtB9_9HelloToolNtNtBd_6domain4Tool4call00Bd_
FNDA:0,_RNCNCNvXs0_NtNtCsfRhWF7WD9Ln_17irish_mcp_gateway5tools5helloNtB9_9HelloToolNtNtBd_6domain4Tool4call00Bd_
FNDA:0,_RNvXs0_NtNtCsfRhWF7WD9Ln_17irish_mcp_gateway5tools5helloNtB5_9HelloToolNtNtB9_6domain4Tool11description
FNDA:0,_RNvXs0_NtNtCsfRhWF7WD9Ln_17irish_mcp_gateway5tools5helloNtB5_9HelloToolNtNtB9_6domain4Tool12input_schema
FNDA:0,_RNvXs0_NtNtCsfRhWF7WD9Ln_17irish_mcp_gateway5tools5helloNtB5_9HelloToolNtNtB9_6domain4Tool4call
FNDA:0,_RNvXs0_NtNtCsfRhWF7WD9Ln_17irish_mcp_gateway5tools5helloNtB5_9HelloToolNtNtB9_6domain4Tool4name
FNDA:1,_RNvNtNtNtCskasGANT74SO_17irish_mcp_gateway5tools5hello5testss_24it_knows_hello_with_name
FNDA:1,_RNvNtNtNtCskasGANT74SO_17irish_mcp_gateway5tools5hello5testss_29it_knows_schema_has_name_prop
FNDA:1,_RNvNtNtNtCskasGANT74SO_17irish_mcp_gateway5tools5hello5testss_32it_knows_hello_defaults_to_world
FNDA:0,_RNvXs0_NtNtCskasGANT74SO_17irish_mcp_gateway5tools5helloNtB5_9HelloToolNtNtB9_6domain4Tool11description
FNDA:0,_RNvXs0_NtNtCskasGANT74SO_17irish_mcp_gateway5tools5helloNtB5_9HelloToolNtNtB9_6domain4Tool4name
FNDA:1,_RNvXs0_NtNtCskasGANT74SO_17irish_mcp_gateway5tools5helloNtB5_9HelloToolNtNtB9_6domain4Tool12input_schema
FNDA:2,_RNvXs0_NtNtCskasGANT74SO_17irish_mcp_gateway5tools5helloNtB5_9HelloToolNtNtB9_6domain4Tool4call
FNDA:1,_RNCNCNvXs0_NtNtCskasGANT74SO_17irish_mcp_gateway5tools5helloNtB9_9HelloToolNtNtBd_6domain4Tool4call00Bd_
FNDA:1,_RNCNvNtNtNtCskasGANT74SO_17irish_mcp_gateway5tools5hello5testss_24it_knows_hello_with_name0B9_
FNDA:1,_RNCNvNtNtNtCskasGANT74SO_17irish_mcp_gateway5tools5hello5testss_32it_knows_hello_defaults_to_world0B9_
FNDA:0,_RNvXs0_NtNtCs6VTIHT4YZ9f_17irish_mcp_gateway5tools5helloNtB5_9HelloToolNtNtB9_6domain4Tool11description
FNDA:0,_RNvXs0_NtNtCs6VTIHT4YZ9f_17irish_mcp_gateway5tools5helloNtB5_9HelloToolNtNtB9_6domain4Tool4name
FNDA:1,_RNCNvNtNtNtCs6VTIHT4YZ9f_17irish_mcp_gateway5tools5hello5testss_24it_knows_hello_with_name0B9_
FNDA:1,_RNCNvNtNtNtCs6VTIHT4YZ9f_17irish_mcp_gateway5tools5hello5testss_32it_knows_hello_defaults_to_world0B9_
FNDA:1,_RNvXs0_NtNtCs6VTIHT4YZ9f_17irish_mcp_gateway5tools5helloNtB5_9HelloToolNtNtB9_6domain4Tool12input_schema
FNDA:2,_RNvXs0_NtNtCs6VTIHT4YZ9f_17irish_mcp_gateway5tools5helloNtB5_9HelloToolNtNtB9_6domain4Tool4call
FNDA:1,_RNCNCNvXs0_NtNtCs6VTIHT4YZ9f_17irish_mcp_gateway5tools5helloNtB9_9HelloToolNtNtBd_6domain4Tool4call00Bd_
FNDA:1,_RNvNtNtNtCs6VTIHT4YZ9f_17irish_mcp_gateway5tools5hello5testss_24it_knows_hello_with_name
FNDA:1,_RNvNtNtNtCs6VTIHT4YZ9f_17irish_mcp_gateway5tools5hello5testss_29it_knows_schema_has_name_prop
FNDA:1,_RNvNtNtNtCs6VTIHT4YZ9f_17irish_mcp_gateway5tools5hello5testss_32it_knows_hello_defaults_to_world
FNDA:0,_RNCNCNvXs0_NtNtCshBDQ5eqaBi2_17irish_mcp_gateway5tools5helloNtB9_9HelloToolNtNtBd_6domain4Tool4call00Bd_
FNF:10
FNH:8
DA:10,0
DA:11,0
DA:12,0
DA:13,0
DA:14,0
DA:15,0
DA:16,2
DA:17,2
DA:18,2
DA:19,4
DA:22,2
DA:25,4
DA:34,2
DA:35,2
DA:36,2
DA:37,2
DA:38,2
DA:41,2
DA:42,2
DA:43,2
DA:44,2
DA:45,2
DA:48,2
DA:49,2
DA:50,2
DA:51,2
DA:52,2
DA:53,2
DA:54,2
BRF:0
BRH:0
LF:33
LH:27
end_of_record
SF:/Users/amacgafraidh/Desktop/irish-mcp-gateway/src/tools/registry.rs
FN:8,_RNvNtNtCsfRhWF7WD9Ln_17irish_mcp_gateway5tools8registry14build_registry
FN:8,_RNvNtNtCskasGANT74SO_17irish_mcp_gateway5tools8registry14build_registry
FN:31,_RNvNtNtNtCskasGANT74SO_17irish_mcp_gateway5tools8registry5testss_38it_includes_spellcheck_when_configured
FN:8,_RNvNtNtCs6VTIHT4YZ9f_17irish_mcp_gateway5tools8registry14build_registry
FN:31,_RNvNtNtNtCs6VTIHT4YZ9f_17irish_mcp_gateway5tools8registry5testss_38it_includes_spellcheck_when_configured
FN:8,_RNvNtNtCshBDQ5eqaBi2_17irish_mcp_gateway5tools8registry14build_registry
FNDA:0,_RNvNtNtCsfRhWF7WD9Ln_17irish_mcp_gateway5tools8registry14build_registry
FNDA:9,_RNvNtNtCskasGANT74SO_17irish_mcp_gateway5tools8registry14build_registry
FNDA:1,_RNvNtNtNtCskasGANT74SO_17irish_mcp_gateway5tools8registry5testss_38it_includes_spellcheck_when_configured
FNDA:9,_RNvNtNtCs6VTIHT4YZ9f_17irish_mcp_gateway5tools8registry14build_registry
FNDA:1,_RNvNtNtNtCs6VTIHT4YZ9f_17irish_mcp_gateway5tools8registry5testss_38it_includes_spellcheck_when_configured
FNDA:1,_RNvNtNtCshBDQ5eqaBi2_17irish_mcp_gateway5tools8registry14build_registry
FNF:2
FNH:2
DA:8,19
DA:9,19
DA:12,19
DA:13,19
DA:16,19
DA:17,2
DA:18,2
DA:19,2
DA:20,2
DA:21,17
DA:23,19
DA:24,19
DA:31,2
DA:32,2
DA:33,2
DA:34,2
DA:35,2
DA:36,2
BRF:0
BRH:0
LF:18
LH:18
end_of_record
SF:/Users/amacgafraidh/Desktop/irish-mcp-gateway/src/tools/spellcheck/local.rs
FN:19,_RNCNCNvXs1_NtNtNtCsfRhWF7WD9Ln_17irish_mcp_gateway5tools10spellcheck5localNtB9_22SpellcheckLocalBackendNtNtNtBf_4core4tool4Tool4call00Bf_
FN:10,_RNvXNtNtNtCsfRhWF7WD9Ln_17irish_mcp_gateway5tools10spellcheck5localNtB2_22SpellcheckLocalBackendNtNtNtB8_4core4tool8ToolSpec11description
FN:11,_RNvXNtNtNtCsfRhWF7WD9Ln_17irish_mcp_gateway5tools10spellcheck5localNtB2_22SpellcheckLocalBackendNtNtNtB8_4core4tool8ToolSpec12input_schema
FN:9,_RNvXNtNtNtCsfRhWF7WD9Ln_17irish_mcp_gateway5tools10spellcheck5localNtB2_22SpellcheckLocalBackendNtNtNtB8_4core4tool8ToolSpec4name
FN:18,_RNvXs1_NtNtNtCsfRhWF7WD9Ln_17irish_mcp_gateway5tools10spellcheck5localNtB5_22SpellcheckLocalBackendNtNtNtBb_4core4tool4Tool4call
FN:19,_RNCNCNvXs1_NtNtNtCskasGANT74SO_17irish_mcp_gateway5tools10spellcheck5localNtB9_22SpellcheckLocalBackendNtNtNtBf_4core4tool4Tool4call00Bf_
FN:29,_RNvNtNtNtNtCskasGANT74SO_17irish_mcp_gateway5tools10spellcheck5local5testss_39local_backend_placeholder_returns_empty
FN:29,_RNCNvNtNtNtNtCskasGANT74SO_17irish_mcp_gateway5tools10spellcheck5local5testss_39local_backend_placeholder_returns_empty0Bb_
FN:10,_RNvXNtNtNtCskasGANT74SO_17irish_mcp_gateway5tools10spellcheck5localNtB2_22SpellcheckLocalBackendNtNtNtB8_4core4tool8ToolSpec11description
FN:11,_RNvXNtNtNtCskasGANT74SO_17irish_mcp_gateway5tools10spellcheck5localNtB2_22SpellcheckLocalBackendNtNtNtB8_4core4tool8ToolSpec12input_schema
FN:9,_RNvXNtNtNtCskasGANT74SO_17irish_mcp_gateway5tools10spellcheck5localNtB2_22SpellcheckLocalBackendNtNtNtB8_4core4tool8ToolSpec4name
FN:18,_RNvXs1_NtNtNtCskasGANT74SO_17irish_mcp_gateway5tools10spellcheck5localNtB5_22SpellcheckLocalBackendNtNtNtBb_4core4tool4Tool4call
FN:10,_RNvXNtNtNtCs6VTIHT4YZ9f_17irish_mcp_gateway5tools10spellcheck5localNtB2_22SpellcheckLocalBackendNtNtNtB8_4core4tool8ToolSpec11description
FN:11,_RNvXNtNtNtCs6VTIHT4YZ9f_17irish_mcp_gateway5tools10spellcheck5localNtB2_22SpellcheckLocalBackendNtNtNtB8_4core4tool8ToolSpec12input_schema
FN:9,_RNvXNtNtNtCs6VTIHT4YZ9f_17irish_mcp_gateway5tools10spellcheck5localNtB2_22SpellcheckLocalBackendNtNtNtB8_4core4tool8ToolSpec4name
FN:18,_RNvXs1_NtNtNtCs6VTIHT4YZ9f_17irish_mcp_gateway5tools10spellcheck5localNtB5_22SpellcheckLocalBackendNtNtNtBb_4core4tool4Tool4call
FN:29,_RNvNtNtNtNtCs6VTIHT4YZ9f_17irish_mcp_gateway5tools10spellcheck5local5testss_39local_backend_placeholder_returns_empty
FN:19,_RNCNCNvXs1_NtNtNtCs6VTIHT4YZ9f_17irish_mcp_gateway5tools10spellcheck5localNtB9_22SpellcheckLocalBackendNtNtNtBf_4core4tool4Tool4call00Bf_
FN:29,_RNCNvNtNtNtNtCs6VTIHT4YZ9f_17irish_mcp_gateway5tools10spellcheck5local5testss_39local_backend_placeholder_returns_empty0Bb_
FN:10,_RNvXNtNtNtCshBDQ5eqaBi2_17irish_mcp_gateway5tools10spellcheck5localNtB2_22SpellcheckLocalBackendNtNtNtB8_4core4tool8ToolSpec11description
FN:11,_RNvXNtNtNtCshBDQ5eqaBi2_17irish_mcp_gateway5tools10spellcheck5localNtB2_22SpellcheckLocalBackendNtNtNtB8_4core4tool8ToolSpec12input_schema
FN:9,_RNvXNtNtNtCshBDQ5eqaBi2_17irish_mcp_gateway5tools10spellcheck5localNtB2_22SpellcheckLocalBackendNtNtNtB8_4core4tool8ToolSpec4name
FN:18,_RNvXs1_NtNtNtCshBDQ5eqaBi2_17irish_mcp_gateway5tools10spellcheck5localNtB5_22SpellcheckLocalBackendNtNtNtBb_4core4tool4Tool4call
FN:19,_RNCNCNvXs1_NtNtNtCshBDQ5eqaBi2_17irish_mcp_gateway5tools10spellcheck5localNtB9_22SpellcheckLocalBackendNtNtNtBf_4core4tool4Tool4call00Bf_
FNDA:0,_RNCNCNvXs1_NtNtNtCsfRhWF7WD9Ln_17irish_mcp_gateway5tools10spellcheck5localNtB9_22SpellcheckLocalBackendNtNtNtBf_4core4tool4Tool4call00Bf_
FNDA:0,_RNvXNtNtNtCsfRhWF7WD9Ln_17irish_mcp_gateway5tools10spellcheck5localNtB2_22SpellcheckLocalBackendNtNtNtB8_4core4tool8ToolSpec11description
FNDA:0,_RNvXNtNtNtCsfRhWF7WD9Ln_17irish_mcp_gateway5tools10spellcheck5localNtB2_22SpellcheckLocalBackendNtNtNtB8_4core4tool8ToolSpec12input_schema
FNDA:0,_RNvXNtNtNtCsfRhWF7WD9Ln_17irish_mcp_gateway5tools10spellcheck5localNtB2_22SpellcheckLocalBackendNtNtNtB8_4core4tool8ToolSpec4name
FNDA:0,_RNvXs1_NtNtNtCsfRhWF7WD9Ln_17irish_mcp_gateway5tools10spellcheck5localNtB5_22SpellcheckLocalBackendNtNtNtBb_4core4tool4Tool4call
FNDA:4,_RNCNCNvXs1_NtNtNtCskasGANT74SO_17irish_mcp_gateway5tools10spellcheck5localNtB9_22SpellcheckLocalBackendNtNtNtBf_4core4tool4Tool4call00Bf_
FNDA:1,_RNvNtNtNtNtCskasGANT74SO_17irish_mcp_gateway5tools10spellcheck5local5testss_39local_backend_placeholder_returns_empty
FNDA:1,_RNCNvNtNtNtNtCskasGANT74SO_17irish_mcp_gateway5tools10spellcheck5local5testss_39local_backend_placeholder_returns_empty0Bb_
FNDA:2,_RNvXNtNtNtCskasGANT74SO_17irish_mcp_gateway5tools10spellcheck5localNtB2_22SpellcheckLocalBackendNtNtNtB8_4core4tool8ToolSpec11description
FNDA:2,_RNvXNtNtNtCskasGANT74SO_17irish_mcp_gateway5tools10spellcheck5localNtB2_22SpellcheckLocalBackendNtNtNtB8_4core4tool8ToolSpec12input_schema
FNDA:2,_RNvXNtNtNtCskasGANT74SO_17irish_mcp_gateway5tools10spellcheck5localNtB2_22SpellcheckLocalBackendNtNtNtB8_4core4tool8ToolSpec4name
FNDA:4,_RNvXs1_NtNtNtCskasGANT74SO_17irish_mcp_gateway5tools10spellcheck5localNtB5_22SpellcheckLocalBackendNtNtNtBb_4core4tool4Tool4call
FNDA:2,_RNvXNtNtNtCs6VTIHT4YZ9f_17irish_mcp_gateway5tools10spellcheck5localNtB2_22SpellcheckLocalBackendNtNtNtB8_4core4tool8ToolSpec11description
FNDA:2,_RNvXNtNtNtCs6VTIHT4YZ9f_17irish_mcp_gateway5tools10spellcheck5localNtB2_22SpellcheckLocalBackendNtNtNtB8_4core4tool8ToolSpec12input_schema
FNDA:2,_RNvXNtNtNtCs6VTIHT4YZ9f_17irish_mcp_gateway5tools10spellcheck5localNtB2_22SpellcheckLocalBackendNtNtNtB8_4core4tool8ToolSpec4name
FNDA:4,_RNvXs1_NtNtNtCs6VTIHT4YZ9f_17irish_mcp_gateway5tools10spellcheck5localNtB5_22SpellcheckLocalBackendNtNtNtBb_4core4tool4Tool4call
FNDA:1,_RNvNtNtNtNtCs6VTIHT4YZ9f_17irish_mcp_gateway5tools10spellcheck5local5testss_39local_backend_placeholder_returns_empty
FNDA:4,_RNCNCNvXs1_NtNtNtCs6VTIHT4YZ9f_17irish_mcp_gateway5tools10spellcheck5localNtB9_22SpellcheckLocalBackendNtNtNtBf_4core4tool4Tool4call00Bf_
FNDA:1,_RNCNvNtNtNtNtCs6VTIHT4YZ9f_17irish_mcp_gateway5tools10spellcheck5local5testss_39local_backend_placeholder_returns_empty0Bb_
FNDA:1,_RNvXNtNtNtCshBDQ5eqaBi2_17irish_mcp_gateway5tools10spellcheck5localNtB2_22SpellcheckLocalBackendNtNtNtB8_4core4tool8ToolSpec11description
FNDA:1,_RNvXNtNtNtCshBDQ5eqaBi2_17irish_mcp_gateway5tools10spellcheck5localNtB2_22SpellcheckLocalBackendNtNtNtB8_4core4tool8ToolSpec12input_schema
FNDA:1,_RNvXNtNtNtCshBDQ5eqaBi2_17irish_mcp_gateway5tools10spellcheck5localNtB2_22SpellcheckLocalBackendNtNtNtB8_4core4tool8ToolSpec4name
FNDA:1,_RNvXs1_NtNtNtCshBDQ5eqaBi2_17irish_mcp_gateway5tools10spellcheck5localNtB5_22SpellcheckLocalBackendNtNtNtBb_4core4tool4Tool4call
FNDA:1,_RNCNCNvXs1_NtNtNtCshBDQ5eqaBi2_17irish_mcp_gateway5tools10spellcheck5localNtB9_22SpellcheckLocalBackendNtNtNtBf_4core4tool4Tool4call00Bf_
FNF:7
FNH:7
DA:9,5
DA:10,5
DA:11,5
DA:12,5
DA:13,5
DA:18,9
DA:19,9
DA:21,9
DA:29,2
DA:30,2
DA:31,2
DA:32,2
DA:33,2
BRF:0
BRH:0
LF:15
LH:15
end_of_record
SF:/Users/amacgafraidh/Desktop/irish-mcp-gateway/src/tools/spellcheck/remote.rs
FN:24,_RNvXs1_NtNtNtCsfRhWF7WD9Ln_17irish_mcp_gateway5tools10spellcheck6remoteNtB5_23SpellcheckRemoteBackendNtNtNtBb_4core4tool4Tool4call
FN:16,_RNvXs_NtNtNtCsfRhWF7WD9Ln_17irish_mcp_gateway5tools10spellcheck6remoteNtB4_23SpellcheckRemoteBackendNtNtNtBa_4core4tool8ToolSpec11description
FN:17,_RNvXs_NtNtNtCsfRhWF7WD9Ln_17irish_mcp_gateway5tools10spellcheck6remoteNtB4_23SpellcheckRemoteBackendNtNtNtBa_4core4tool8ToolSpec12input_schema
FN:15,_RNvXs_NtNtNtCsfRhWF7WD9Ln_17irish_mcp_gateway5tools10spellcheck6remoteNtB4_23SpellcheckRemoteBackendNtNtNtBa_4core4tool8ToolSpec4name
FN:11,_RINvMNtNtNtCsfRhWF7WD9Ln_17irish_mcp_gateway5tools10spellcheck6remoteNtB3_23SpellcheckRemoteBackend3newNtNtCs3LPPTODPrjR_5alloc6string6StringEB9_
FN:25,_RNCNCNvXs1_NtNtNtCsfRhWF7WD9Ln_17irish_mcp_gateway5tools10spellcheck6remoteNtB9_23SpellcheckRemoteBackendNtNtNtBf_4core4tool4Tool4call00Bf_
FN:36,_RNvNtNtNtNtCskasGANT74SO_17irish_mcp_gateway5tools10spellcheck6remote5testss_40remote_backend_placeholder_returns_empty
FN:24,_RNvXs1_NtNtNtCskasGANT74SO_17irish_mcp_gateway5tools10spellcheck6remoteNtB5_23SpellcheckRemoteBackendNtNtNtBb_4core4tool4Tool4call
FN:16,_RNvXs_NtNtNtCskasGANT74SO_17irish_mcp_gateway5tools10spellcheck6remoteNtB4_23SpellcheckRemoteBackendNtNtNtBa_4core4tool8ToolSpec11description
FN:17,_RNvXs_NtNtNtCskasGANT74SO_17irish_mcp_gateway5tools10spellcheck6remoteNtB4_23SpellcheckRemoteBackendNtNtNtBa_4core4tool8ToolSpec12input_schema
FN:15,_RNvXs_NtNtNtCskasGANT74SO_17irish_mcp_gateway5tools10spellcheck6remoteNtB4_23SpellcheckRemoteBackendNtNtNtBa_4core4tool8ToolSpec4name
FN:11,_RINvMNtNtNtCskasGANT74SO_17irish_mcp_gateway5tools10spellcheck6remoteNtB3_23SpellcheckRemoteBackend3newNtNtCs3LPPTODPrjR_5alloc6string6StringEB9_
FN:11,_RINvMNtNtNtCskasGANT74SO_17irish_mcp_gateway5tools10spellcheck6remoteNtB3_23SpellcheckRemoteBackend3newReEB9_
FN:25,_RNCNCNvXs1_NtNtNtCskasGANT74SO_17irish_mcp_gateway5tools10spellcheck6remoteNtB9_23SpellcheckRemoteBackendNtNtNtBf_4core4tool4Tool4call00Bf_
FN:36,_RNCNvNtNtNtNtCskasGANT74SO_17irish_mcp_gateway5tools10spellcheck6remote5testss_40remote_backend_placeholder_returns_empty0Bb_
FN:36,_RNvNtNtNtNtCs6VTIHT4YZ9f_17irish_mcp_gateway5tools10spellcheck6remote5testss_40remote_backend_placeholder_returns_empty
FN:24,_RNvXs1_NtNtNtCs6VTIHT4YZ9f_17irish_mcp_gateway5tools10spellcheck6remoteNtB5_23SpellcheckRemoteBackendNtNtNtBb_4core4tool4Tool4call
FN:16,_RNvXs_NtNtNtCs6VTIHT4YZ9f_17irish_mcp_gateway5tools10spellcheck6remoteNtB4_23SpellcheckRemoteBackendNtNtNtBa_4core4tool8ToolSpec11description
FN:17,_RNvXs_NtNtNtCs6VTIHT4YZ9f_17irish_mcp_gateway5tools10spellcheck6remoteNtB4_23SpellcheckRemoteBackendNtNtNtBa_4core4tool8ToolSpec12input_schema
FN:15,_RNvXs_NtNtNtCs6VTIHT4YZ9f_17irish_mcp_gateway5tools10spellcheck6remoteNtB4_23SpellcheckRemoteBackendNtNtNtBa_4core4tool8ToolSpec4name
FN:36,_RNCNvNtNtNtNtCs6VTIHT4YZ9f_17irish_mcp_gateway5tools10spellcheck6remote5testss_40remote_backend_placeholder_returns_empty0Bb_
FN:11,_RINvMNtNtNtCs6VTIHT4YZ9f_17irish_mcp_gateway5tools10spellcheck6remoteNtB3_23SpellcheckRemoteBackend3newNtNtCs3LPPTODPrjR_5alloc6string6StringEB9_
FN:11,_RINvMNtNtNtCs6VTIHT4YZ9f_17irish_mcp_gateway5tools10spellcheck6remoteNtB3_23SpellcheckRemoteBackend3newReEB9_
FN:25,_RNCNCNvXs1_NtNtNtCs6VTIHT4YZ9f_17irish_mcp_gateway5tools10spellcheck6remoteNtB9_23SpellcheckRemoteBackendNtNtNtBf_4core4tool4Tool4call00Bf_
FN:11,_RINvMNtNtNtCshBDQ5eqaBi2_17irish_mcp_gateway5tools10spellcheck6remoteNtB3_23SpellcheckRemoteBackend3newNtNtCs3LPPTODPrjR_5alloc6string6StringEB9_
FN:25,_RNCNCNvXs1_NtNtNtCshBDQ5eqaBi2_17irish_mcp_gateway5tools10spellcheck6remoteNtB9_23SpellcheckRemoteBackendNtNtNtBf_4core4tool4Tool4call00Bf_
FN:24,_RNvXs1_NtNtNtCshBDQ5eqaBi2_17irish_mcp_gateway5tools10spellcheck6remoteNtB5_23SpellcheckRemoteBackendNtNtNtBb_4core4tool4Tool4call
FN:16,_RNvXs_NtNtNtCshBDQ5eqaBi2_17irish_mcp_gateway5tools10spellcheck6remoteNtB4_23SpellcheckRemoteBackendNtNtNtBa_4core4tool8ToolSpec11description
FN:17,_RNvXs_NtNtNtCshBDQ5eqaBi2_17irish_mcp_gateway5tools10spellcheck6remoteNtB4_23SpellcheckRemoteBackendNtNtNtBa_4core4tool8ToolSpec12input_schema
FN:15,_RNvXs_NtNtNtCshBDQ5eqaBi2_17irish_mcp_gateway5tools10spellcheck6remoteNtB4_23SpellcheckRemoteBackendNtNtNtBa_4core4tool8ToolSpec4name
FNDA:0,_RNvXs1_NtNtNtCsfRhWF7WD9Ln_17irish_mcp_gateway5tools10spellcheck6remoteNtB5_23SpellcheckRemoteBackendNtNtNtBb_4core4tool4Tool4call
FNDA:0,_RNvXs_NtNtNtCsfRhWF7WD9Ln_17irish_mcp_gateway5tools10spellcheck6remoteNtB4_23SpellcheckRemoteBackendNtNtNtBa_4core4tool8ToolSpec11description
FNDA:0,_RNvXs_NtNtNtCsfRhWF7WD9Ln_17irish_mcp_gateway5tools10spellcheck6remoteNtB4_23SpellcheckRemoteBackendNtNtNtBa_4core4tool8ToolSpec12input_schema
FNDA:0,_RNvXs_NtNtNtCsfRhWF7WD9Ln_17irish_mcp_gateway5tools10spellcheck6remoteNtB4_23SpellcheckRemoteBackendNtNtNtBa_4core4tool8ToolSpec4name
FNDA:0,_RINvMNtNtNtCsfRhWF7WD9Ln_17irish_mcp_gateway5tools10spellcheck6remoteNtB3_23SpellcheckRemoteBackend3newNtNtCs3LPPTODPrjR_5alloc6string6StringEB9_
FNDA:0,_RNCNCNvXs1_NtNtNtCsfRhWF7WD9Ln_17irish_mcp_gateway5tools10spellcheck6remoteNtB9_23SpellcheckRemoteBackendNtNtNtBf_4core4tool4Tool4call00Bf_
FNDA:1,_RNvNtNtNtNtCskasGANT74SO_17irish_mcp_gateway5tools10spellcheck6remote5testss_40remote_backend_placeholder_returns_empty
FNDA:1,_RNvXs1_NtNtNtCskasGANT74SO_17irish_mcp_gateway5tools10spellcheck6remoteNtB5_23SpellcheckRemoteBackendNtNtNtBb_4core4tool4Tool4call
FNDA:0,_RNvXs_NtNtNtCskasGANT74SO_17irish_mcp_gateway5tools10spellcheck6remoteNtB4_23SpellcheckRemoteBackendNtNtNtBa_4core4tool8ToolSpec11description
FNDA:0,_RNvXs_NtNtNtCskasGANT74SO_17irish_mcp_gateway5tools10spellcheck6remoteNtB4_23SpellcheckRemoteBackendNtNtNtBa_4core4tool8ToolSpec12input_schema
FNDA:0,_RNvXs_NtNtNtCskasGANT74SO_17irish_mcp_gateway5tools10spellcheck6remoteNtB4_23SpellcheckRemoteBackendNtNtNtBa_4core4tool8ToolSpec4name
FNDA:1,_RINvMNtNtNtCskasGANT74SO_17irish_mcp_gateway5tools10spellcheck6remoteNtB3_23SpellcheckRemoteBackend3newNtNtCs3LPPTODPrjR_5alloc6string6StringEB9_
FNDA:1,_RINvMNtNtNtCskasGANT74SO_17irish_mcp_gateway5tools10spellcheck6remoteNtB3_23SpellcheckRemoteBackend3newReEB9_
FNDA:1,_RNCNCNvXs1_NtNtNtCskasGANT74SO_17irish_mcp_gateway5tools10spellcheck6remoteNtB9_23SpellcheckRemoteBackendNtNtNtBf_4core4tool4Tool4call00Bf_
FNDA:1,_RNCNvNtNtNtNtCskasGANT74SO_17irish_mcp_gateway5tools10spellcheck6remote5testss_40remote_backend_placeholder_returns_empty0Bb_
FNDA:1,_RNvNtNtNtNtCs6VTIHT4YZ9f_17irish_mcp_gateway5tools10spellcheck6remote5testss_40remote_backend_placeholder_returns_empty
FNDA:1,_RNvXs1_NtNtNtCs6VTIHT4YZ9f_17irish_mcp_gateway5tools10spellcheck6remoteNtB5_23SpellcheckRemoteBackendNtNtNtBb_4core4tool4Tool4call
FNDA:0,_RNvXs_NtNtNtCs6VTIHT4YZ9f_17irish_mcp_gateway5tools10spellcheck6remoteNtB4_23SpellcheckRemoteBackendNtNtNtBa_4core4tool8ToolSpec11description
FNDA:0,_RNvXs_NtNtNtCs6VTIHT4YZ9f_17irish_mcp_gateway5tools10spellcheck6remoteNtB4_23SpellcheckRemoteBackendNtNtNtBa_4core4tool8ToolSpec12input_schema
FNDA:0,_RNvXs_NtNtNtCs6VTIHT4YZ9f_17irish_mcp_gateway5tools10spellcheck6remoteNtB4_23SpellcheckRemoteBackendNtNtNtBa_4core4tool8ToolSpec4name
FNDA:1,_RNCNvNtNtNtNtCs6VTIHT4YZ9f_17irish_mcp_gateway5tools10spellcheck6remote5testss_40remote_backend_placeholder_returns_empty0Bb_
FNDA:1,_RINvMNtNtNtCs6VTIHT4YZ9f_17irish_mcp_gateway5tools10spellcheck6remoteNtB3_23SpellcheckRemoteBackend3newNtNtCs3LPPTODPrjR_5alloc6string6StringEB9_
FNDA:1,_RINvMNtNtNtCs6VTIHT4YZ9f_17irish_mcp_gateway5tools10spellcheck6remoteNtB3_23SpellcheckRemoteBackend3newReEB9_
FNDA:1,_RNCNCNvXs1_NtNtNtCs6VTIHT4YZ9f_17irish_mcp_gateway5tools10spellcheck6remoteNtB9_23SpellcheckRemoteBackendNtNtNtBf_4core4tool4Tool4call00Bf_
FNDA:0,_RINvMNtNtNtCshBDQ5eqaBi2_17irish_mcp_gateway5tools10spellcheck6remoteNtB3_23SpellcheckRemoteBackend3newNtNtCs3LPPTODPrjR_5alloc6string6StringEB9_
FNDA:0,_RNCNCNvXs1_NtNtNtCshBDQ5eqaBi2_17irish_mcp_gateway5tools10spellcheck6remoteNtB9_23SpellcheckRemoteBackendNtNtNtBf_4core4tool4Tool4call00Bf_
FNDA:0,_RNvXs1_NtNtNtCshBDQ5eqaBi2_17irish_mcp_gateway5tools10spellcheck6remoteNtB5_23SpellcheckRemoteBackendNtNtNtBb_4core4tool4Tool4call
FNDA:0,_RNvXs_NtNtNtCshBDQ5eqaBi2_17irish_mcp_gateway5tools10spellcheck6remoteNtB4_23SpellcheckRemoteBackendNtNtNtBa_4core4tool8ToolSpec11description
FNDA:0,_RNvXs_NtNtNtCshBDQ5eqaBi2_17irish_mcp_gateway5tools10spellcheck6remoteNtB4_23SpellcheckRemoteBackendNtNtNtBa_4core4tool8ToolSpec12input_schema
FNDA:0,_RNvXs_NtNtNtCshBDQ5eqaBi2_17irish_mcp_gateway5tools10spellcheck6remoteNtB4_23SpellcheckRemoteBackendNtNtNtBa_4core4tool8ToolSpec4name
FNF:8
FNH:5
DA:11,4
DA:15,0
DA:16,0
DA:17,0
DA:18,0
DA:19,0
DA:24,2
DA:25,2
DA:28,2
DA:36,2
DA:37,2
DA:38,2
DA:39,2
DA:40,2
BRF:0
BRH:0
LF:16
LH:11
end_of_record